ARM GAS  C:\Users\User\AppData\Local\Temp\ccEs9kv2.s 			page 1


   1              		.cpu cortex-m0plus
   2              		.arch armv6s-m
   3              		.fpu softvfp
   4              		.eabi_attribute 20, 1
   5              		.eabi_attribute 21, 1
   6              		.eabi_attribute 23, 3
   7              		.eabi_attribute 24, 1
   8              		.eabi_attribute 25, 1
   9              		.eabi_attribute 26, 1
  10              		.eabi_attribute 30, 1
  11              		.eabi_attribute 34, 0
  12              		.eabi_attribute 18, 4
  13              		.file	"i2c.c"
  14              		.text
  15              	.Ltext0:
  16              		.cfi_sections	.debug_frame
  17              		.file 1 "Core/Src/i2c.c"
  18              		.section	.text.MX_I2C1_Init,"ax",%progbits
  19              		.align	1
  20              		.global	MX_I2C1_Init
  21              		.syntax unified
  22              		.code	16
  23              		.thumb_func
  25              	MX_I2C1_Init:
  26              	.LFB47:
   1:Core/Src/i2c.c **** /* USER CODE BEGIN Header */
   2:Core/Src/i2c.c **** /**
   3:Core/Src/i2c.c ****   ******************************************************************************
   4:Core/Src/i2c.c ****   * @file    i2c.c
   5:Core/Src/i2c.c ****   * @brief   This file provides code for the configuration
   6:Core/Src/i2c.c ****   *          of the I2C instances.
   7:Core/Src/i2c.c ****   ******************************************************************************
   8:Core/Src/i2c.c ****   * @attention
   9:Core/Src/i2c.c ****   *
  10:Core/Src/i2c.c ****   * Copyright (c) 2023 STMicroelectronics.
  11:Core/Src/i2c.c ****   * All rights reserved.
  12:Core/Src/i2c.c ****   *
  13:Core/Src/i2c.c ****   * This software is licensed under terms that can be found in the LICENSE file
  14:Core/Src/i2c.c ****   * in the root directory of this software component.
  15:Core/Src/i2c.c ****   * If no LICENSE file comes with this software, it is provided AS-IS.
  16:Core/Src/i2c.c ****   *
  17:Core/Src/i2c.c ****   ******************************************************************************
  18:Core/Src/i2c.c ****   */
  19:Core/Src/i2c.c **** /* USER CODE END Header */
  20:Core/Src/i2c.c **** /* Includes ------------------------------------------------------------------*/
  21:Core/Src/i2c.c **** #include "i2c.h"
  22:Core/Src/i2c.c **** 
  23:Core/Src/i2c.c **** /* USER CODE BEGIN 0 */
  24:Core/Src/i2c.c **** 
  25:Core/Src/i2c.c **** /* USER CODE END 0 */
  26:Core/Src/i2c.c **** 
  27:Core/Src/i2c.c **** I2C_HandleTypeDef hi2c1;
  28:Core/Src/i2c.c **** 
  29:Core/Src/i2c.c **** /* I2C1 init function */
  30:Core/Src/i2c.c **** void MX_I2C1_Init(void)
  31:Core/Src/i2c.c **** {
  27              		.loc 1 31 1 view -0
ARM GAS  C:\Users\User\AppData\Local\Temp\ccEs9kv2.s 			page 2


  28              		.cfi_startproc
  29              		@ args = 0, pretend = 0, frame = 0
  30              		@ frame_needed = 0, uses_anonymous_args = 0
  31 0000 10B5     		push	{r4, lr}
  32              	.LCFI0:
  33              		.cfi_def_cfa_offset 8
  34              		.cfi_offset 4, -8
  35              		.cfi_offset 14, -4
  32:Core/Src/i2c.c **** 
  33:Core/Src/i2c.c ****   /* USER CODE BEGIN I2C1_Init 0 */
  34:Core/Src/i2c.c **** 
  35:Core/Src/i2c.c ****   /* USER CODE END I2C1_Init 0 */
  36:Core/Src/i2c.c **** 
  37:Core/Src/i2c.c ****   /* USER CODE BEGIN I2C1_Init 1 */
  38:Core/Src/i2c.c **** 
  39:Core/Src/i2c.c ****   /* USER CODE END I2C1_Init 1 */
  40:Core/Src/i2c.c ****   hi2c1.Instance = I2C1;
  36              		.loc 1 40 3 view .LVU1
  37              		.loc 1 40 18 is_stmt 0 view .LVU2
  38 0002 1448     		ldr	r0, .L8
  39 0004 144B     		ldr	r3, .L8+4
  40 0006 0360     		str	r3, [r0]
  41:Core/Src/i2c.c ****   hi2c1.Init.Timing = 0x00000708;
  41              		.loc 1 41 3 is_stmt 1 view .LVU3
  42              		.loc 1 41 21 is_stmt 0 view .LVU4
  43 0008 E123     		movs	r3, #225
  44 000a DB00     		lsls	r3, r3, #3
  45 000c 4360     		str	r3, [r0, #4]
  42:Core/Src/i2c.c ****   hi2c1.Init.OwnAddress1 = 0;
  46              		.loc 1 42 3 is_stmt 1 view .LVU5
  47              		.loc 1 42 26 is_stmt 0 view .LVU6
  48 000e 0023     		movs	r3, #0
  49 0010 8360     		str	r3, [r0, #8]
  43:Core/Src/i2c.c ****   hi2c1.Init.AddressingMode = I2C_ADDRESSINGMODE_7BIT;
  50              		.loc 1 43 3 is_stmt 1 view .LVU7
  51              		.loc 1 43 29 is_stmt 0 view .LVU8
  52 0012 0122     		movs	r2, #1
  53 0014 C260     		str	r2, [r0, #12]
  44:Core/Src/i2c.c ****   hi2c1.Init.DualAddressMode = I2C_DUALADDRESS_DISABLE;
  54              		.loc 1 44 3 is_stmt 1 view .LVU9
  55              		.loc 1 44 30 is_stmt 0 view .LVU10
  56 0016 0361     		str	r3, [r0, #16]
  45:Core/Src/i2c.c ****   hi2c1.Init.OwnAddress2 = 0;
  57              		.loc 1 45 3 is_stmt 1 view .LVU11
  58              		.loc 1 45 26 is_stmt 0 view .LVU12
  59 0018 4361     		str	r3, [r0, #20]
  46:Core/Src/i2c.c ****   hi2c1.Init.OwnAddress2Masks = I2C_OA2_NOMASK;
  60              		.loc 1 46 3 is_stmt 1 view .LVU13
  61              		.loc 1 46 31 is_stmt 0 view .LVU14
  62 001a 8361     		str	r3, [r0, #24]
  47:Core/Src/i2c.c ****   hi2c1.Init.GeneralCallMode = I2C_GENERALCALL_DISABLE;
  63              		.loc 1 47 3 is_stmt 1 view .LVU15
  64              		.loc 1 47 30 is_stmt 0 view .LVU16
  65 001c C361     		str	r3, [r0, #28]
  48:Core/Src/i2c.c ****   hi2c1.Init.NoStretchMode = I2C_NOSTRETCH_DISABLE;
  66              		.loc 1 48 3 is_stmt 1 view .LVU17
  67              		.loc 1 48 28 is_stmt 0 view .LVU18
ARM GAS  C:\Users\User\AppData\Local\Temp\ccEs9kv2.s 			page 3


  68 001e 0362     		str	r3, [r0, #32]
  49:Core/Src/i2c.c ****   if (HAL_I2C_Init(&hi2c1) != HAL_OK)
  69              		.loc 1 49 3 is_stmt 1 view .LVU19
  70              		.loc 1 49 7 is_stmt 0 view .LVU20
  71 0020 FFF7FEFF 		bl	HAL_I2C_Init
  72              	.LVL0:
  73              		.loc 1 49 6 view .LVU21
  74 0024 0028     		cmp	r0, #0
  75 0026 0CD1     		bne	.L5
  76              	.L2:
  50:Core/Src/i2c.c ****   {
  51:Core/Src/i2c.c ****     Error_Handler();
  52:Core/Src/i2c.c ****   }
  53:Core/Src/i2c.c **** 
  54:Core/Src/i2c.c ****   /** Configure Analogue filter
  55:Core/Src/i2c.c ****   */
  56:Core/Src/i2c.c ****   if (HAL_I2CEx_ConfigAnalogFilter(&hi2c1, I2C_ANALOGFILTER_ENABLE) != HAL_OK)
  77              		.loc 1 56 3 is_stmt 1 view .LVU22
  78              		.loc 1 56 7 is_stmt 0 view .LVU23
  79 0028 0A48     		ldr	r0, .L8
  80 002a 0021     		movs	r1, #0
  81 002c FFF7FEFF 		bl	HAL_I2CEx_ConfigAnalogFilter
  82              	.LVL1:
  83              		.loc 1 56 6 view .LVU24
  84 0030 0028     		cmp	r0, #0
  85 0032 09D1     		bne	.L6
  86              	.L3:
  57:Core/Src/i2c.c ****   {
  58:Core/Src/i2c.c ****     Error_Handler();
  59:Core/Src/i2c.c ****   }
  60:Core/Src/i2c.c **** 
  61:Core/Src/i2c.c ****   /** Configure Digital filter
  62:Core/Src/i2c.c ****   */
  63:Core/Src/i2c.c ****   if (HAL_I2CEx_ConfigDigitalFilter(&hi2c1, 0) != HAL_OK)
  87              		.loc 1 63 3 is_stmt 1 view .LVU25
  88              		.loc 1 63 7 is_stmt 0 view .LVU26
  89 0034 0748     		ldr	r0, .L8
  90 0036 0021     		movs	r1, #0
  91 0038 FFF7FEFF 		bl	HAL_I2CEx_ConfigDigitalFilter
  92              	.LVL2:
  93              		.loc 1 63 6 view .LVU27
  94 003c 0028     		cmp	r0, #0
  95 003e 06D1     		bne	.L7
  96              	.L1:
  64:Core/Src/i2c.c ****   {
  65:Core/Src/i2c.c ****     Error_Handler();
  66:Core/Src/i2c.c ****   }
  67:Core/Src/i2c.c ****   /* USER CODE BEGIN I2C1_Init 2 */
  68:Core/Src/i2c.c **** 
  69:Core/Src/i2c.c ****   /* USER CODE END I2C1_Init 2 */
  70:Core/Src/i2c.c **** 
  71:Core/Src/i2c.c **** }
  97              		.loc 1 71 1 view .LVU28
  98              		@ sp needed
  99 0040 10BD     		pop	{r4, pc}
 100              	.L5:
  51:Core/Src/i2c.c ****   }
ARM GAS  C:\Users\User\AppData\Local\Temp\ccEs9kv2.s 			page 4


 101              		.loc 1 51 5 is_stmt 1 view .LVU29
 102 0042 FFF7FEFF 		bl	Error_Handler
 103              	.LVL3:
 104 0046 EFE7     		b	.L2
 105              	.L6:
  58:Core/Src/i2c.c ****   }
 106              		.loc 1 58 5 view .LVU30
 107 0048 FFF7FEFF 		bl	Error_Handler
 108              	.LVL4:
 109 004c F2E7     		b	.L3
 110              	.L7:
  65:Core/Src/i2c.c ****   }
 111              		.loc 1 65 5 view .LVU31
 112 004e FFF7FEFF 		bl	Error_Handler
 113              	.LVL5:
 114              		.loc 1 71 1 is_stmt 0 view .LVU32
 115 0052 F5E7     		b	.L1
 116              	.L9:
 117              		.align	2
 118              	.L8:
 119 0054 00000000 		.word	hi2c1
 120 0058 00540040 		.word	1073763328
 121              		.cfi_endproc
 122              	.LFE47:
 124              		.section	.text.HAL_I2C_MspInit,"ax",%progbits
 125              		.align	1
 126              		.global	HAL_I2C_MspInit
 127              		.syntax unified
 128              		.code	16
 129              		.thumb_func
 131              	HAL_I2C_MspInit:
 132              	.LVL6:
 133              	.LFB48:
  72:Core/Src/i2c.c **** 
  73:Core/Src/i2c.c **** void HAL_I2C_MspInit(I2C_HandleTypeDef* i2cHandle)
  74:Core/Src/i2c.c **** {
 134              		.loc 1 74 1 is_stmt 1 view -0
 135              		.cfi_startproc
 136              		@ args = 0, pretend = 0, frame = 24
 137              		@ frame_needed = 0, uses_anonymous_args = 0
 138              		.loc 1 74 1 is_stmt 0 view .LVU34
 139 0000 10B5     		push	{r4, lr}
 140              	.LCFI1:
 141              		.cfi_def_cfa_offset 8
 142              		.cfi_offset 4, -8
 143              		.cfi_offset 14, -4
 144 0002 86B0     		sub	sp, sp, #24
 145              	.LCFI2:
 146              		.cfi_def_cfa_offset 32
 147 0004 0400     		movs	r4, r0
  75:Core/Src/i2c.c **** 
  76:Core/Src/i2c.c ****   GPIO_InitTypeDef GPIO_InitStruct = {0};
 148              		.loc 1 76 3 is_stmt 1 view .LVU35
 149              		.loc 1 76 20 is_stmt 0 view .LVU36
 150 0006 1422     		movs	r2, #20
 151 0008 0021     		movs	r1, #0
 152 000a 01A8     		add	r0, sp, #4
ARM GAS  C:\Users\User\AppData\Local\Temp\ccEs9kv2.s 			page 5


 153              	.LVL7:
 154              		.loc 1 76 20 view .LVU37
 155 000c FFF7FEFF 		bl	memset
 156              	.LVL8:
  77:Core/Src/i2c.c ****   if(i2cHandle->Instance==I2C1)
 157              		.loc 1 77 3 is_stmt 1 view .LVU38
 158              		.loc 1 77 15 is_stmt 0 view .LVU39
 159 0010 2268     		ldr	r2, [r4]
 160              		.loc 1 77 5 view .LVU40
 161 0012 104B     		ldr	r3, .L13
 162 0014 9A42     		cmp	r2, r3
 163 0016 01D0     		beq	.L12
 164              	.LVL9:
 165              	.L10:
  78:Core/Src/i2c.c ****   {
  79:Core/Src/i2c.c ****   /* USER CODE BEGIN I2C1_MspInit 0 */
  80:Core/Src/i2c.c **** 
  81:Core/Src/i2c.c ****   /* USER CODE END I2C1_MspInit 0 */
  82:Core/Src/i2c.c **** 
  83:Core/Src/i2c.c ****     __HAL_RCC_GPIOB_CLK_ENABLE();
  84:Core/Src/i2c.c ****     /**I2C1 GPIO Configuration
  85:Core/Src/i2c.c ****     PB6     ------> I2C1_SCL
  86:Core/Src/i2c.c ****     PB7     ------> I2C1_SDA
  87:Core/Src/i2c.c ****     */
  88:Core/Src/i2c.c ****     GPIO_InitStruct.Pin = GPIO_PIN_6|GPIO_PIN_7;
  89:Core/Src/i2c.c ****     GPIO_InitStruct.Mode = GPIO_MODE_AF_OD;
  90:Core/Src/i2c.c ****     GPIO_InitStruct.Pull = GPIO_NOPULL;
  91:Core/Src/i2c.c ****     GPIO_InitStruct.Speed = GPIO_SPEED_FREQ_VERY_HIGH;
  92:Core/Src/i2c.c ****     GPIO_InitStruct.Alternate = GPIO_AF1_I2C1;
  93:Core/Src/i2c.c ****     HAL_GPIO_Init(GPIOB, &GPIO_InitStruct);
  94:Core/Src/i2c.c **** 
  95:Core/Src/i2c.c ****     /* I2C1 clock enable */
  96:Core/Src/i2c.c ****     __HAL_RCC_I2C1_CLK_ENABLE();
  97:Core/Src/i2c.c ****   /* USER CODE BEGIN I2C1_MspInit 1 */
  98:Core/Src/i2c.c **** 
  99:Core/Src/i2c.c ****   /* USER CODE END I2C1_MspInit 1 */
 100:Core/Src/i2c.c ****   }
 101:Core/Src/i2c.c **** }
 166              		.loc 1 101 1 view .LVU41
 167 0018 06B0     		add	sp, sp, #24
 168              		@ sp needed
 169 001a 10BD     		pop	{r4, pc}
 170              	.LVL10:
 171              	.L12:
  83:Core/Src/i2c.c ****     /**I2C1 GPIO Configuration
 172              		.loc 1 83 5 is_stmt 1 view .LVU42
 173              	.LBB2:
  83:Core/Src/i2c.c ****     /**I2C1 GPIO Configuration
 174              		.loc 1 83 5 view .LVU43
  83:Core/Src/i2c.c ****     /**I2C1 GPIO Configuration
 175              		.loc 1 83 5 view .LVU44
 176 001c 0E4C     		ldr	r4, .L13+4
 177              	.LVL11:
  83:Core/Src/i2c.c ****     /**I2C1 GPIO Configuration
 178              		.loc 1 83 5 is_stmt 0 view .LVU45
 179 001e E26A     		ldr	r2, [r4, #44]
 180 0020 0223     		movs	r3, #2
ARM GAS  C:\Users\User\AppData\Local\Temp\ccEs9kv2.s 			page 6


 181 0022 1A43     		orrs	r2, r3
 182 0024 E262     		str	r2, [r4, #44]
  83:Core/Src/i2c.c ****     /**I2C1 GPIO Configuration
 183              		.loc 1 83 5 is_stmt 1 view .LVU46
 184 0026 E26A     		ldr	r2, [r4, #44]
 185 0028 1340     		ands	r3, r2
 186 002a 0093     		str	r3, [sp]
  83:Core/Src/i2c.c ****     /**I2C1 GPIO Configuration
 187              		.loc 1 83 5 view .LVU47
 188 002c 009B     		ldr	r3, [sp]
 189              	.LBE2:
  83:Core/Src/i2c.c ****     /**I2C1 GPIO Configuration
 190              		.loc 1 83 5 view .LVU48
  88:Core/Src/i2c.c ****     GPIO_InitStruct.Mode = GPIO_MODE_AF_OD;
 191              		.loc 1 88 5 view .LVU49
  88:Core/Src/i2c.c ****     GPIO_InitStruct.Mode = GPIO_MODE_AF_OD;
 192              		.loc 1 88 25 is_stmt 0 view .LVU50
 193 002e C023     		movs	r3, #192
 194 0030 0193     		str	r3, [sp, #4]
  89:Core/Src/i2c.c ****     GPIO_InitStruct.Pull = GPIO_NOPULL;
 195              		.loc 1 89 5 is_stmt 1 view .LVU51
  89:Core/Src/i2c.c ****     GPIO_InitStruct.Pull = GPIO_NOPULL;
 196              		.loc 1 89 26 is_stmt 0 view .LVU52
 197 0032 AE3B     		subs	r3, r3, #174
 198 0034 0293     		str	r3, [sp, #8]
  90:Core/Src/i2c.c ****     GPIO_InitStruct.Speed = GPIO_SPEED_FREQ_VERY_HIGH;
 199              		.loc 1 90 5 is_stmt 1 view .LVU53
  91:Core/Src/i2c.c ****     GPIO_InitStruct.Alternate = GPIO_AF1_I2C1;
 200              		.loc 1 91 5 view .LVU54
  91:Core/Src/i2c.c ****     GPIO_InitStruct.Alternate = GPIO_AF1_I2C1;
 201              		.loc 1 91 27 is_stmt 0 view .LVU55
 202 0036 0F3B     		subs	r3, r3, #15
 203 0038 0493     		str	r3, [sp, #16]
  92:Core/Src/i2c.c ****     HAL_GPIO_Init(GPIOB, &GPIO_InitStruct);
 204              		.loc 1 92 5 is_stmt 1 view .LVU56
  92:Core/Src/i2c.c ****     HAL_GPIO_Init(GPIOB, &GPIO_InitStruct);
 205              		.loc 1 92 31 is_stmt 0 view .LVU57
 206 003a 023B     		subs	r3, r3, #2
 207 003c 0593     		str	r3, [sp, #20]
  93:Core/Src/i2c.c **** 
 208              		.loc 1 93 5 is_stmt 1 view .LVU58
 209 003e 01A9     		add	r1, sp, #4
 210 0040 0648     		ldr	r0, .L13+8
 211 0042 FFF7FEFF 		bl	HAL_GPIO_Init
 212              	.LVL12:
  96:Core/Src/i2c.c ****   /* USER CODE BEGIN I2C1_MspInit 1 */
 213              		.loc 1 96 5 view .LVU59
 214 0046 A26B     		ldr	r2, [r4, #56]
 215 0048 8023     		movs	r3, #128
 216 004a 9B03     		lsls	r3, r3, #14
 217 004c 1343     		orrs	r3, r2
 218 004e A363     		str	r3, [r4, #56]
 219              		.loc 1 101 1 is_stmt 0 view .LVU60
 220 0050 E2E7     		b	.L10
 221              	.L14:
 222 0052 C046     		.align	2
 223              	.L13:
ARM GAS  C:\Users\User\AppData\Local\Temp\ccEs9kv2.s 			page 7


 224 0054 00540040 		.word	1073763328
 225 0058 00100240 		.word	1073876992
 226 005c 00040050 		.word	1342178304
 227              		.cfi_endproc
 228              	.LFE48:
 230              		.section	.text.HAL_I2C_MspDeInit,"ax",%progbits
 231              		.align	1
 232              		.global	HAL_I2C_MspDeInit
 233              		.syntax unified
 234              		.code	16
 235              		.thumb_func
 237              	HAL_I2C_MspDeInit:
 238              	.LVL13:
 239              	.LFB49:
 102:Core/Src/i2c.c **** 
 103:Core/Src/i2c.c **** void HAL_I2C_MspDeInit(I2C_HandleTypeDef* i2cHandle)
 104:Core/Src/i2c.c **** {
 240              		.loc 1 104 1 is_stmt 1 view -0
 241              		.cfi_startproc
 242              		@ args = 0, pretend = 0, frame = 0
 243              		@ frame_needed = 0, uses_anonymous_args = 0
 244              		.loc 1 104 1 is_stmt 0 view .LVU62
 245 0000 10B5     		push	{r4, lr}
 246              	.LCFI3:
 247              		.cfi_def_cfa_offset 8
 248              		.cfi_offset 4, -8
 249              		.cfi_offset 14, -4
 105:Core/Src/i2c.c **** 
 106:Core/Src/i2c.c ****   if(i2cHandle->Instance==I2C1)
 250              		.loc 1 106 3 is_stmt 1 view .LVU63
 251              		.loc 1 106 15 is_stmt 0 view .LVU64
 252 0002 0268     		ldr	r2, [r0]
 253              		.loc 1 106 5 view .LVU65
 254 0004 094B     		ldr	r3, .L18
 255 0006 9A42     		cmp	r2, r3
 256 0008 00D0     		beq	.L17
 257              	.LVL14:
 258              	.L15:
 107:Core/Src/i2c.c ****   {
 108:Core/Src/i2c.c ****   /* USER CODE BEGIN I2C1_MspDeInit 0 */
 109:Core/Src/i2c.c **** 
 110:Core/Src/i2c.c ****   /* USER CODE END I2C1_MspDeInit 0 */
 111:Core/Src/i2c.c ****     /* Peripheral clock disable */
 112:Core/Src/i2c.c ****     __HAL_RCC_I2C1_CLK_DISABLE();
 113:Core/Src/i2c.c **** 
 114:Core/Src/i2c.c ****     /**I2C1 GPIO Configuration
 115:Core/Src/i2c.c ****     PB6     ------> I2C1_SCL
 116:Core/Src/i2c.c ****     PB7     ------> I2C1_SDA
 117:Core/Src/i2c.c ****     */
 118:Core/Src/i2c.c ****     HAL_GPIO_DeInit(GPIOB, GPIO_PIN_6);
 119:Core/Src/i2c.c **** 
 120:Core/Src/i2c.c ****     HAL_GPIO_DeInit(GPIOB, GPIO_PIN_7);
 121:Core/Src/i2c.c **** 
 122:Core/Src/i2c.c ****   /* USER CODE BEGIN I2C1_MspDeInit 1 */
 123:Core/Src/i2c.c **** 
 124:Core/Src/i2c.c ****   /* USER CODE END I2C1_MspDeInit 1 */
 125:Core/Src/i2c.c ****   }
ARM GAS  C:\Users\User\AppData\Local\Temp\ccEs9kv2.s 			page 8


 126:Core/Src/i2c.c **** }
 259              		.loc 1 126 1 view .LVU66
 260              		@ sp needed
 261 000a 10BD     		pop	{r4, pc}
 262              	.LVL15:
 263              	.L17:
 112:Core/Src/i2c.c **** 
 264              		.loc 1 112 5 is_stmt 1 view .LVU67
 265 000c 084A     		ldr	r2, .L18+4
 266 000e 936B     		ldr	r3, [r2, #56]
 267 0010 0849     		ldr	r1, .L18+8
 268 0012 0B40     		ands	r3, r1
 269 0014 9363     		str	r3, [r2, #56]
 118:Core/Src/i2c.c **** 
 270              		.loc 1 118 5 view .LVU68
 271 0016 084C     		ldr	r4, .L18+12
 272 0018 4021     		movs	r1, #64
 273 001a 2000     		movs	r0, r4
 274              	.LVL16:
 118:Core/Src/i2c.c **** 
 275              		.loc 1 118 5 is_stmt 0 view .LVU69
 276 001c FFF7FEFF 		bl	HAL_GPIO_DeInit
 277              	.LVL17:
 120:Core/Src/i2c.c **** 
 278              		.loc 1 120 5 is_stmt 1 view .LVU70
 279 0020 8021     		movs	r1, #128
 280 0022 2000     		movs	r0, r4
 281 0024 FFF7FEFF 		bl	HAL_GPIO_DeInit
 282              	.LVL18:
 283              		.loc 1 126 1 is_stmt 0 view .LVU71
 284 0028 EFE7     		b	.L15
 285              	.L19:
 286 002a C046     		.align	2
 287              	.L18:
 288 002c 00540040 		.word	1073763328
 289 0030 00100240 		.word	1073876992
 290 0034 FFFFDFFF 		.word	-2097153
 291 0038 00040050 		.word	1342178304
 292              		.cfi_endproc
 293              	.LFE49:
 295              		.global	hi2c1
 296              		.section	.bss.hi2c1,"aw",%nobits
 297              		.align	2
 300              	hi2c1:
 301 0000 00000000 		.space	76
 301      00000000 
 301      00000000 
 301      00000000 
 301      00000000 
 302              		.text
 303              	.Letext0:
 304              		.file 2 "c:\\program files (x86)\\arm gnu toolchain arm-none-eabi\\12.2 rel1\\arm-none-eabi\\inclu
 305              		.file 3 "c:\\program files (x86)\\arm gnu toolchain arm-none-eabi\\12.2 rel1\\arm-none-eabi\\inclu
 306              		.file 4 "Drivers/CMSIS/Device/ST/STM32L0xx/Include/stm32l071xx.h"
 307              		.file 5 "Drivers/STM32L0xx_HAL_Driver/Inc/stm32l0xx_hal_def.h"
 308              		.file 6 "Drivers/STM32L0xx_HAL_Driver/Inc/stm32l0xx_hal_gpio.h"
 309              		.file 7 "Drivers/STM32L0xx_HAL_Driver/Inc/stm32l0xx_hal_dma.h"
ARM GAS  C:\Users\User\AppData\Local\Temp\ccEs9kv2.s 			page 9


 310              		.file 8 "Drivers/STM32L0xx_HAL_Driver/Inc/stm32l0xx_hal_i2c.h"
 311              		.file 9 "Drivers/STM32L0xx_HAL_Driver/Inc/stm32l0xx_hal_i2c_ex.h"
 312              		.file 10 "Core/Inc/i2c.h"
 313              		.file 11 "Core/Inc/main.h"
 314              		.file 12 "<built-in>"
ARM GAS  C:\Users\User\AppData\Local\Temp\ccEs9kv2.s 			page 10

