ARM GAS  C:\Users\User\AppData\Local\Temp\cc3ubKML.s 			page 1


   1              		.cpu cortex-m0plus
   2              		.arch armv6s-m
   3              		.fpu softvfp
   4              		.eabi_attribute 20, 1
   5              		.eabi_attribute 21, 1
   6              		.eabi_attribute 23, 3
   7              		.eabi_attribute 24, 1
   8              		.eabi_attribute 25, 1
   9              		.eabi_attribute 26, 1
  10              		.eabi_attribute 30, 1
  11              		.eabi_attribute 34, 0
  12              		.eabi_attribute 18, 4
  13              		.file	"stm32l0xx_hal_rcc_ex.c"
  14              		.text
  15              	.Ltext0:
  16              		.cfi_sections	.debug_frame
  17              		.file 1 "Drivers/STM32L0xx_HAL_Driver/Src/stm32l0xx_hal_rcc_ex.c"
  18              		.section	.text.HAL_RCCEx_PeriphCLKConfig,"ax",%progbits
  19              		.align	1
  20              		.global	HAL_RCCEx_PeriphCLKConfig
  21              		.syntax unified
  22              		.code	16
  23              		.thumb_func
  25              	HAL_RCCEx_PeriphCLKConfig:
  26              	.LVL0:
  27              	.LFB47:
   1:Drivers/STM32L0xx_HAL_Driver/Src/stm32l0xx_hal_rcc_ex.c **** /**
   2:Drivers/STM32L0xx_HAL_Driver/Src/stm32l0xx_hal_rcc_ex.c ****   ******************************************************************************
   3:Drivers/STM32L0xx_HAL_Driver/Src/stm32l0xx_hal_rcc_ex.c ****   * @file    stm32l0xx_hal_rcc_ex.c
   4:Drivers/STM32L0xx_HAL_Driver/Src/stm32l0xx_hal_rcc_ex.c ****   * @author  MCD Application Team
   5:Drivers/STM32L0xx_HAL_Driver/Src/stm32l0xx_hal_rcc_ex.c ****   * @brief   Extended RCC HAL module driver.
   6:Drivers/STM32L0xx_HAL_Driver/Src/stm32l0xx_hal_rcc_ex.c ****   *          This file provides firmware functions to manage the following
   7:Drivers/STM32L0xx_HAL_Driver/Src/stm32l0xx_hal_rcc_ex.c ****   *          functionalities RCC extension peripheral:
   8:Drivers/STM32L0xx_HAL_Driver/Src/stm32l0xx_hal_rcc_ex.c ****   *           + Extended Peripheral Control functions
   9:Drivers/STM32L0xx_HAL_Driver/Src/stm32l0xx_hal_rcc_ex.c ****   *           + Extended Clock Recovery System Control functions
  10:Drivers/STM32L0xx_HAL_Driver/Src/stm32l0xx_hal_rcc_ex.c ****   *
  11:Drivers/STM32L0xx_HAL_Driver/Src/stm32l0xx_hal_rcc_ex.c ****   ******************************************************************************
  12:Drivers/STM32L0xx_HAL_Driver/Src/stm32l0xx_hal_rcc_ex.c ****   * @attention
  13:Drivers/STM32L0xx_HAL_Driver/Src/stm32l0xx_hal_rcc_ex.c ****   *
  14:Drivers/STM32L0xx_HAL_Driver/Src/stm32l0xx_hal_rcc_ex.c ****   * <h2><center>&copy; Copyright(c) 2016 STMicroelectronics.
  15:Drivers/STM32L0xx_HAL_Driver/Src/stm32l0xx_hal_rcc_ex.c ****   * All rights reserved.</center></h2>
  16:Drivers/STM32L0xx_HAL_Driver/Src/stm32l0xx_hal_rcc_ex.c ****   *
  17:Drivers/STM32L0xx_HAL_Driver/Src/stm32l0xx_hal_rcc_ex.c ****   * This software component is licensed by ST under BSD 3-Clause license,
  18:Drivers/STM32L0xx_HAL_Driver/Src/stm32l0xx_hal_rcc_ex.c ****   * the "License"; You may not use this file except in compliance with the
  19:Drivers/STM32L0xx_HAL_Driver/Src/stm32l0xx_hal_rcc_ex.c ****   * License. You may obtain a copy of the License at:
  20:Drivers/STM32L0xx_HAL_Driver/Src/stm32l0xx_hal_rcc_ex.c ****   *                        opensource.org/licenses/BSD-3-Clause
  21:Drivers/STM32L0xx_HAL_Driver/Src/stm32l0xx_hal_rcc_ex.c ****   *
  22:Drivers/STM32L0xx_HAL_Driver/Src/stm32l0xx_hal_rcc_ex.c ****   ******************************************************************************
  23:Drivers/STM32L0xx_HAL_Driver/Src/stm32l0xx_hal_rcc_ex.c ****   */
  24:Drivers/STM32L0xx_HAL_Driver/Src/stm32l0xx_hal_rcc_ex.c **** 
  25:Drivers/STM32L0xx_HAL_Driver/Src/stm32l0xx_hal_rcc_ex.c **** /* Includes ------------------------------------------------------------------*/
  26:Drivers/STM32L0xx_HAL_Driver/Src/stm32l0xx_hal_rcc_ex.c **** #include "stm32l0xx_hal.h"
  27:Drivers/STM32L0xx_HAL_Driver/Src/stm32l0xx_hal_rcc_ex.c **** 
  28:Drivers/STM32L0xx_HAL_Driver/Src/stm32l0xx_hal_rcc_ex.c **** /** @addtogroup STM32L0xx_HAL_Driver
  29:Drivers/STM32L0xx_HAL_Driver/Src/stm32l0xx_hal_rcc_ex.c ****   * @{
  30:Drivers/STM32L0xx_HAL_Driver/Src/stm32l0xx_hal_rcc_ex.c ****   */
  31:Drivers/STM32L0xx_HAL_Driver/Src/stm32l0xx_hal_rcc_ex.c **** 
ARM GAS  C:\Users\User\AppData\Local\Temp\cc3ubKML.s 			page 2


  32:Drivers/STM32L0xx_HAL_Driver/Src/stm32l0xx_hal_rcc_ex.c **** #ifdef HAL_RCC_MODULE_ENABLED
  33:Drivers/STM32L0xx_HAL_Driver/Src/stm32l0xx_hal_rcc_ex.c **** 
  34:Drivers/STM32L0xx_HAL_Driver/Src/stm32l0xx_hal_rcc_ex.c **** /** @defgroup RCCEx RCCEx
  35:Drivers/STM32L0xx_HAL_Driver/Src/stm32l0xx_hal_rcc_ex.c ****   * @brief RCC Extension HAL module driver
  36:Drivers/STM32L0xx_HAL_Driver/Src/stm32l0xx_hal_rcc_ex.c ****   * @{
  37:Drivers/STM32L0xx_HAL_Driver/Src/stm32l0xx_hal_rcc_ex.c ****   */
  38:Drivers/STM32L0xx_HAL_Driver/Src/stm32l0xx_hal_rcc_ex.c **** 
  39:Drivers/STM32L0xx_HAL_Driver/Src/stm32l0xx_hal_rcc_ex.c **** /* Private typedef -----------------------------------------------------------*/
  40:Drivers/STM32L0xx_HAL_Driver/Src/stm32l0xx_hal_rcc_ex.c **** /* Private define ------------------------------------------------------------*/
  41:Drivers/STM32L0xx_HAL_Driver/Src/stm32l0xx_hal_rcc_ex.c **** /** @defgroup RCCEx_Private_Constants RCCEx Private Constants
  42:Drivers/STM32L0xx_HAL_Driver/Src/stm32l0xx_hal_rcc_ex.c ****   * @{
  43:Drivers/STM32L0xx_HAL_Driver/Src/stm32l0xx_hal_rcc_ex.c ****   */
  44:Drivers/STM32L0xx_HAL_Driver/Src/stm32l0xx_hal_rcc_ex.c **** #if defined(USB)
  45:Drivers/STM32L0xx_HAL_Driver/Src/stm32l0xx_hal_rcc_ex.c **** extern const uint8_t PLLMulTable[];
  46:Drivers/STM32L0xx_HAL_Driver/Src/stm32l0xx_hal_rcc_ex.c **** #endif /* USB */
  47:Drivers/STM32L0xx_HAL_Driver/Src/stm32l0xx_hal_rcc_ex.c **** /**
  48:Drivers/STM32L0xx_HAL_Driver/Src/stm32l0xx_hal_rcc_ex.c ****   * @}
  49:Drivers/STM32L0xx_HAL_Driver/Src/stm32l0xx_hal_rcc_ex.c ****   */
  50:Drivers/STM32L0xx_HAL_Driver/Src/stm32l0xx_hal_rcc_ex.c **** 
  51:Drivers/STM32L0xx_HAL_Driver/Src/stm32l0xx_hal_rcc_ex.c **** /* Private macro -------------------------------------------------------------*/
  52:Drivers/STM32L0xx_HAL_Driver/Src/stm32l0xx_hal_rcc_ex.c **** /** @defgroup RCCEx_Private_Macros RCCEx Private Macros
  53:Drivers/STM32L0xx_HAL_Driver/Src/stm32l0xx_hal_rcc_ex.c ****   * @{
  54:Drivers/STM32L0xx_HAL_Driver/Src/stm32l0xx_hal_rcc_ex.c ****   */
  55:Drivers/STM32L0xx_HAL_Driver/Src/stm32l0xx_hal_rcc_ex.c **** /**
  56:Drivers/STM32L0xx_HAL_Driver/Src/stm32l0xx_hal_rcc_ex.c ****   * @}
  57:Drivers/STM32L0xx_HAL_Driver/Src/stm32l0xx_hal_rcc_ex.c ****   */
  58:Drivers/STM32L0xx_HAL_Driver/Src/stm32l0xx_hal_rcc_ex.c **** 
  59:Drivers/STM32L0xx_HAL_Driver/Src/stm32l0xx_hal_rcc_ex.c **** /* Private variables ---------------------------------------------------------*/
  60:Drivers/STM32L0xx_HAL_Driver/Src/stm32l0xx_hal_rcc_ex.c **** /* Private function prototypes -----------------------------------------------*/
  61:Drivers/STM32L0xx_HAL_Driver/Src/stm32l0xx_hal_rcc_ex.c **** /* Private functions ---------------------------------------------------------*/
  62:Drivers/STM32L0xx_HAL_Driver/Src/stm32l0xx_hal_rcc_ex.c **** 
  63:Drivers/STM32L0xx_HAL_Driver/Src/stm32l0xx_hal_rcc_ex.c **** /** @defgroup RCCEx_Exported_Functions RCCEx Exported Functions
  64:Drivers/STM32L0xx_HAL_Driver/Src/stm32l0xx_hal_rcc_ex.c ****   * @{
  65:Drivers/STM32L0xx_HAL_Driver/Src/stm32l0xx_hal_rcc_ex.c ****   */
  66:Drivers/STM32L0xx_HAL_Driver/Src/stm32l0xx_hal_rcc_ex.c **** 
  67:Drivers/STM32L0xx_HAL_Driver/Src/stm32l0xx_hal_rcc_ex.c **** /** @defgroup RCCEx_Exported_Functions_Group1 Extended Peripheral Control functions
  68:Drivers/STM32L0xx_HAL_Driver/Src/stm32l0xx_hal_rcc_ex.c ****  *  @brief  Extended Peripheral Control functions
  69:Drivers/STM32L0xx_HAL_Driver/Src/stm32l0xx_hal_rcc_ex.c ****  *
  70:Drivers/STM32L0xx_HAL_Driver/Src/stm32l0xx_hal_rcc_ex.c **** @verbatim
  71:Drivers/STM32L0xx_HAL_Driver/Src/stm32l0xx_hal_rcc_ex.c ****  ===============================================================================
  72:Drivers/STM32L0xx_HAL_Driver/Src/stm32l0xx_hal_rcc_ex.c ****                 ##### Extended Peripheral Control functions  #####
  73:Drivers/STM32L0xx_HAL_Driver/Src/stm32l0xx_hal_rcc_ex.c ****  ===============================================================================
  74:Drivers/STM32L0xx_HAL_Driver/Src/stm32l0xx_hal_rcc_ex.c ****     [..]
  75:Drivers/STM32L0xx_HAL_Driver/Src/stm32l0xx_hal_rcc_ex.c ****     This subsection provides a set of functions allowing to control the RCC Clocks
  76:Drivers/STM32L0xx_HAL_Driver/Src/stm32l0xx_hal_rcc_ex.c ****     frequencies.
  77:Drivers/STM32L0xx_HAL_Driver/Src/stm32l0xx_hal_rcc_ex.c ****     [..]
  78:Drivers/STM32L0xx_HAL_Driver/Src/stm32l0xx_hal_rcc_ex.c ****     (@) Important note: Care must be taken when HAL_RCCEx_PeriphCLKConfig() is used to
  79:Drivers/STM32L0xx_HAL_Driver/Src/stm32l0xx_hal_rcc_ex.c ****         select the RTC clock source; in this case the Backup domain will be reset in
  80:Drivers/STM32L0xx_HAL_Driver/Src/stm32l0xx_hal_rcc_ex.c ****         order to modify the RTC Clock source, as consequence RTC registers (including
  81:Drivers/STM32L0xx_HAL_Driver/Src/stm32l0xx_hal_rcc_ex.c ****         the backup registers) are set to their reset values.
  82:Drivers/STM32L0xx_HAL_Driver/Src/stm32l0xx_hal_rcc_ex.c **** 
  83:Drivers/STM32L0xx_HAL_Driver/Src/stm32l0xx_hal_rcc_ex.c **** @endverbatim
  84:Drivers/STM32L0xx_HAL_Driver/Src/stm32l0xx_hal_rcc_ex.c ****   * @{
  85:Drivers/STM32L0xx_HAL_Driver/Src/stm32l0xx_hal_rcc_ex.c ****   */
  86:Drivers/STM32L0xx_HAL_Driver/Src/stm32l0xx_hal_rcc_ex.c **** 
  87:Drivers/STM32L0xx_HAL_Driver/Src/stm32l0xx_hal_rcc_ex.c **** /**
  88:Drivers/STM32L0xx_HAL_Driver/Src/stm32l0xx_hal_rcc_ex.c ****   * @brief  Initializes the RCC extended peripherals clocks according to the specified
ARM GAS  C:\Users\User\AppData\Local\Temp\cc3ubKML.s 			page 3


  89:Drivers/STM32L0xx_HAL_Driver/Src/stm32l0xx_hal_rcc_ex.c ****   *         parameters in the RCC_PeriphCLKInitTypeDef.
  90:Drivers/STM32L0xx_HAL_Driver/Src/stm32l0xx_hal_rcc_ex.c ****   * @param  PeriphClkInit pointer to an RCC_PeriphCLKInitTypeDef structure that
  91:Drivers/STM32L0xx_HAL_Driver/Src/stm32l0xx_hal_rcc_ex.c ****   *         contains the configuration information for the Extended Peripherals clocks(USART1,USART
  92:Drivers/STM32L0xx_HAL_Driver/Src/stm32l0xx_hal_rcc_ex.c ****   *         I2C1, I2C3, RTC, USB/RNG  and LPTIM1 clocks).
  93:Drivers/STM32L0xx_HAL_Driver/Src/stm32l0xx_hal_rcc_ex.c ****   * @retval HAL status
  94:Drivers/STM32L0xx_HAL_Driver/Src/stm32l0xx_hal_rcc_ex.c ****   * @note   If HAL_ERROR returned, first switch-OFF HSE clock oscillator with @ref HAL_RCC_OscConfi
  95:Drivers/STM32L0xx_HAL_Driver/Src/stm32l0xx_hal_rcc_ex.c ****   *         to possibly update HSE divider.
  96:Drivers/STM32L0xx_HAL_Driver/Src/stm32l0xx_hal_rcc_ex.c ****   */
  97:Drivers/STM32L0xx_HAL_Driver/Src/stm32l0xx_hal_rcc_ex.c **** HAL_StatusTypeDef HAL_RCCEx_PeriphCLKConfig(RCC_PeriphCLKInitTypeDef  *PeriphClkInit)
  98:Drivers/STM32L0xx_HAL_Driver/Src/stm32l0xx_hal_rcc_ex.c **** {
  28              		.loc 1 98 1 view -0
  29              		.cfi_startproc
  30              		@ args = 0, pretend = 0, frame = 0
  31              		@ frame_needed = 0, uses_anonymous_args = 0
  32              		.loc 1 98 1 is_stmt 0 view .LVU1
  33 0000 70B5     		push	{r4, r5, r6, lr}
  34              	.LCFI0:
  35              		.cfi_def_cfa_offset 16
  36              		.cfi_offset 4, -16
  37              		.cfi_offset 5, -12
  38              		.cfi_offset 6, -8
  39              		.cfi_offset 14, -4
  40 0002 0400     		movs	r4, r0
  99:Drivers/STM32L0xx_HAL_Driver/Src/stm32l0xx_hal_rcc_ex.c ****   uint32_t tickstart;
  41              		.loc 1 99 3 is_stmt 1 view .LVU2
 100:Drivers/STM32L0xx_HAL_Driver/Src/stm32l0xx_hal_rcc_ex.c ****   uint32_t temp_reg;
  42              		.loc 1 100 3 view .LVU3
 101:Drivers/STM32L0xx_HAL_Driver/Src/stm32l0xx_hal_rcc_ex.c ****   FlagStatus       pwrclkchanged = RESET;
  43              		.loc 1 101 3 view .LVU4
  44              	.LVL1:
 102:Drivers/STM32L0xx_HAL_Driver/Src/stm32l0xx_hal_rcc_ex.c **** 
 103:Drivers/STM32L0xx_HAL_Driver/Src/stm32l0xx_hal_rcc_ex.c ****   /* Check the parameters */
 104:Drivers/STM32L0xx_HAL_Driver/Src/stm32l0xx_hal_rcc_ex.c ****   assert_param(IS_RCC_PERIPHCLOCK(PeriphClkInit->PeriphClockSelection));
  45              		.loc 1 104 3 view .LVU5
 105:Drivers/STM32L0xx_HAL_Driver/Src/stm32l0xx_hal_rcc_ex.c **** 
 106:Drivers/STM32L0xx_HAL_Driver/Src/stm32l0xx_hal_rcc_ex.c ****   /*------------------------------- RTC/LCD Configuration ------------------------*/
 107:Drivers/STM32L0xx_HAL_Driver/Src/stm32l0xx_hal_rcc_ex.c ****   if ((((PeriphClkInit->PeriphClockSelection) & RCC_PERIPHCLK_RTC) == RCC_PERIPHCLK_RTC)
  46              		.loc 1 107 3 view .LVU6
  47              		.loc 1 107 23 is_stmt 0 view .LVU7
  48 0004 0368     		ldr	r3, [r0]
  49              		.loc 1 107 6 view .LVU8
  50 0006 9B06     		lsls	r3, r3, #26
  51 0008 4DD5     		bpl	.L2
 108:Drivers/STM32L0xx_HAL_Driver/Src/stm32l0xx_hal_rcc_ex.c **** #if defined(LCD)
 109:Drivers/STM32L0xx_HAL_Driver/Src/stm32l0xx_hal_rcc_ex.c ****    || (((PeriphClkInit->PeriphClockSelection) & RCC_PERIPHCLK_LCD) == RCC_PERIPHCLK_LCD)
 110:Drivers/STM32L0xx_HAL_Driver/Src/stm32l0xx_hal_rcc_ex.c **** #endif /* LCD */
 111:Drivers/STM32L0xx_HAL_Driver/Src/stm32l0xx_hal_rcc_ex.c ****      )
 112:Drivers/STM32L0xx_HAL_Driver/Src/stm32l0xx_hal_rcc_ex.c ****   {
 113:Drivers/STM32L0xx_HAL_Driver/Src/stm32l0xx_hal_rcc_ex.c ****     /* check for RTC Parameters used to output RTCCLK */
 114:Drivers/STM32L0xx_HAL_Driver/Src/stm32l0xx_hal_rcc_ex.c ****     if(((PeriphClkInit->PeriphClockSelection) & RCC_PERIPHCLK_RTC) == RCC_PERIPHCLK_RTC)
  52              		.loc 1 114 5 is_stmt 1 view .LVU9
 115:Drivers/STM32L0xx_HAL_Driver/Src/stm32l0xx_hal_rcc_ex.c ****     {
 116:Drivers/STM32L0xx_HAL_Driver/Src/stm32l0xx_hal_rcc_ex.c ****       assert_param(IS_RCC_RTCCLKSOURCE(PeriphClkInit->RTCClockSelection));
  53              		.loc 1 116 7 view .LVU10
 117:Drivers/STM32L0xx_HAL_Driver/Src/stm32l0xx_hal_rcc_ex.c ****     }
 118:Drivers/STM32L0xx_HAL_Driver/Src/stm32l0xx_hal_rcc_ex.c **** 
 119:Drivers/STM32L0xx_HAL_Driver/Src/stm32l0xx_hal_rcc_ex.c **** #if defined(LCD)
ARM GAS  C:\Users\User\AppData\Local\Temp\cc3ubKML.s 			page 4


 120:Drivers/STM32L0xx_HAL_Driver/Src/stm32l0xx_hal_rcc_ex.c ****     if(((PeriphClkInit->PeriphClockSelection) & RCC_PERIPHCLK_LCD) == RCC_PERIPHCLK_LCD)
 121:Drivers/STM32L0xx_HAL_Driver/Src/stm32l0xx_hal_rcc_ex.c ****     {
 122:Drivers/STM32L0xx_HAL_Driver/Src/stm32l0xx_hal_rcc_ex.c ****       assert_param(IS_RCC_RTCCLKSOURCE(PeriphClkInit->LCDClockSelection));
 123:Drivers/STM32L0xx_HAL_Driver/Src/stm32l0xx_hal_rcc_ex.c ****     }
 124:Drivers/STM32L0xx_HAL_Driver/Src/stm32l0xx_hal_rcc_ex.c **** #endif /* LCD */
 125:Drivers/STM32L0xx_HAL_Driver/Src/stm32l0xx_hal_rcc_ex.c **** 
 126:Drivers/STM32L0xx_HAL_Driver/Src/stm32l0xx_hal_rcc_ex.c ****     /* As soon as function is called to change RTC clock source, activation of the
 127:Drivers/STM32L0xx_HAL_Driver/Src/stm32l0xx_hal_rcc_ex.c ****        power domain is done. */
 128:Drivers/STM32L0xx_HAL_Driver/Src/stm32l0xx_hal_rcc_ex.c ****     /* Requires to enable write access to Backup Domain of necessary */
 129:Drivers/STM32L0xx_HAL_Driver/Src/stm32l0xx_hal_rcc_ex.c ****     if(__HAL_RCC_PWR_IS_CLK_DISABLED())
  54              		.loc 1 129 5 view .LVU11
  55              		.loc 1 129 8 is_stmt 0 view .LVU12
  56 000a 654B     		ldr	r3, .L37
  57 000c 9B6B     		ldr	r3, [r3, #56]
  58              		.loc 1 129 7 view .LVU13
  59 000e DB00     		lsls	r3, r3, #3
  60 0010 00D5     		bpl	.LCB32
  61 0012 86E0     		b	.L18	@long jump
  62              	.LCB32:
 130:Drivers/STM32L0xx_HAL_Driver/Src/stm32l0xx_hal_rcc_ex.c ****     {
 131:Drivers/STM32L0xx_HAL_Driver/Src/stm32l0xx_hal_rcc_ex.c ****       __HAL_RCC_PWR_CLK_ENABLE();
  63              		.loc 1 131 7 is_stmt 1 view .LVU14
  64 0014 624A     		ldr	r2, .L37
  65 0016 916B     		ldr	r1, [r2, #56]
  66 0018 8023     		movs	r3, #128
  67 001a 5B05     		lsls	r3, r3, #21
  68 001c 0B43     		orrs	r3, r1
  69 001e 9363     		str	r3, [r2, #56]
 132:Drivers/STM32L0xx_HAL_Driver/Src/stm32l0xx_hal_rcc_ex.c ****       pwrclkchanged = SET;
  70              		.loc 1 132 7 view .LVU15
  71              	.LVL2:
  72              		.loc 1 132 21 is_stmt 0 view .LVU16
  73 0020 0126     		movs	r6, #1
  74              	.LVL3:
  75              	.L3:
 133:Drivers/STM32L0xx_HAL_Driver/Src/stm32l0xx_hal_rcc_ex.c ****     }
 134:Drivers/STM32L0xx_HAL_Driver/Src/stm32l0xx_hal_rcc_ex.c **** 
 135:Drivers/STM32L0xx_HAL_Driver/Src/stm32l0xx_hal_rcc_ex.c ****     if(HAL_IS_BIT_CLR(PWR->CR, PWR_CR_DBP))
  76              		.loc 1 135 5 is_stmt 1 view .LVU17
  77              		.loc 1 135 8 is_stmt 0 view .LVU18
  78 0022 604B     		ldr	r3, .L37+4
  79 0024 1B68     		ldr	r3, [r3]
  80              		.loc 1 135 7 view .LVU19
  81 0026 DB05     		lsls	r3, r3, #23
  82 0028 7DD5     		bpl	.L32
  83              	.LVL4:
  84              	.L4:
 136:Drivers/STM32L0xx_HAL_Driver/Src/stm32l0xx_hal_rcc_ex.c ****     {
 137:Drivers/STM32L0xx_HAL_Driver/Src/stm32l0xx_hal_rcc_ex.c ****       /* Enable write access to Backup domain */
 138:Drivers/STM32L0xx_HAL_Driver/Src/stm32l0xx_hal_rcc_ex.c ****       SET_BIT(PWR->CR, PWR_CR_DBP);
 139:Drivers/STM32L0xx_HAL_Driver/Src/stm32l0xx_hal_rcc_ex.c **** 
 140:Drivers/STM32L0xx_HAL_Driver/Src/stm32l0xx_hal_rcc_ex.c ****       /* Wait for Backup domain Write protection disable */
 141:Drivers/STM32L0xx_HAL_Driver/Src/stm32l0xx_hal_rcc_ex.c ****       tickstart = HAL_GetTick();
 142:Drivers/STM32L0xx_HAL_Driver/Src/stm32l0xx_hal_rcc_ex.c **** 
 143:Drivers/STM32L0xx_HAL_Driver/Src/stm32l0xx_hal_rcc_ex.c ****       while(HAL_IS_BIT_CLR(PWR->CR, PWR_CR_DBP))
 144:Drivers/STM32L0xx_HAL_Driver/Src/stm32l0xx_hal_rcc_ex.c ****       {
 145:Drivers/STM32L0xx_HAL_Driver/Src/stm32l0xx_hal_rcc_ex.c ****         if((HAL_GetTick() - tickstart) > RCC_DBP_TIMEOUT_VALUE)
ARM GAS  C:\Users\User\AppData\Local\Temp\cc3ubKML.s 			page 5


 146:Drivers/STM32L0xx_HAL_Driver/Src/stm32l0xx_hal_rcc_ex.c ****         {
 147:Drivers/STM32L0xx_HAL_Driver/Src/stm32l0xx_hal_rcc_ex.c ****           return HAL_TIMEOUT;
 148:Drivers/STM32L0xx_HAL_Driver/Src/stm32l0xx_hal_rcc_ex.c ****         }
 149:Drivers/STM32L0xx_HAL_Driver/Src/stm32l0xx_hal_rcc_ex.c ****       }
 150:Drivers/STM32L0xx_HAL_Driver/Src/stm32l0xx_hal_rcc_ex.c ****     }
 151:Drivers/STM32L0xx_HAL_Driver/Src/stm32l0xx_hal_rcc_ex.c **** 
 152:Drivers/STM32L0xx_HAL_Driver/Src/stm32l0xx_hal_rcc_ex.c ****     /* Check if user wants to change HSE RTC prescaler whereas HSE is enabled */
 153:Drivers/STM32L0xx_HAL_Driver/Src/stm32l0xx_hal_rcc_ex.c ****     temp_reg = (RCC->CR & RCC_CR_RTCPRE);
  85              		.loc 1 153 5 is_stmt 1 view .LVU20
  86              		.loc 1 153 20 is_stmt 0 view .LVU21
  87 002a 5D4B     		ldr	r3, .L37
  88 002c 1B68     		ldr	r3, [r3]
  89              	.LVL5:
 154:Drivers/STM32L0xx_HAL_Driver/Src/stm32l0xx_hal_rcc_ex.c ****     if ((temp_reg != (PeriphClkInit->RTCClockSelection & RCC_CR_RTCPRE))
  90              		.loc 1 154 5 is_stmt 1 view .LVU22
  91              		.loc 1 154 36 is_stmt 0 view .LVU23
  92 002e 6268     		ldr	r2, [r4, #4]
  93              		.loc 1 154 8 view .LVU24
  94 0030 5340     		eors	r3, r2
  95              	.LVL6:
  96              		.loc 1 154 8 view .LVU25
  97 0032 C021     		movs	r1, #192
  98 0034 8903     		lsls	r1, r1, #14
  99 0036 0B42     		tst	r3, r1
 100 0038 06D0     		beq	.L8
 155:Drivers/STM32L0xx_HAL_Driver/Src/stm32l0xx_hal_rcc_ex.c **** #if defined (LCD)
 156:Drivers/STM32L0xx_HAL_Driver/Src/stm32l0xx_hal_rcc_ex.c ****      || (temp_reg != (PeriphClkInit->LCDClockSelection & RCC_CR_RTCPRE))
 157:Drivers/STM32L0xx_HAL_Driver/Src/stm32l0xx_hal_rcc_ex.c **** #endif /* LCD */
 158:Drivers/STM32L0xx_HAL_Driver/Src/stm32l0xx_hal_rcc_ex.c ****        )
 159:Drivers/STM32L0xx_HAL_Driver/Src/stm32l0xx_hal_rcc_ex.c ****     { /* Check HSE State */
 160:Drivers/STM32L0xx_HAL_Driver/Src/stm32l0xx_hal_rcc_ex.c ****       if ((PeriphClkInit->RTCClockSelection & RCC_CSR_RTCSEL) == RCC_CSR_RTCSEL_HSE)
 101              		.loc 1 160 7 is_stmt 1 view .LVU26
 102              		.loc 1 160 45 is_stmt 0 view .LVU27
 103 003a C023     		movs	r3, #192
 104 003c 9B02     		lsls	r3, r3, #10
 105 003e 1100     		movs	r1, r2
 106 0040 1940     		ands	r1, r3
 107              		.loc 1 160 10 view .LVU28
 108 0042 9942     		cmp	r1, r3
 109 0044 00D1     		bne	.LCB75
 110 0046 83E0     		b	.L33	@long jump
 111              	.LCB75:
 112              	.L8:
 161:Drivers/STM32L0xx_HAL_Driver/Src/stm32l0xx_hal_rcc_ex.c ****       {
 162:Drivers/STM32L0xx_HAL_Driver/Src/stm32l0xx_hal_rcc_ex.c ****         if (HAL_IS_BIT_SET(RCC->CR, RCC_CR_HSERDY))
 163:Drivers/STM32L0xx_HAL_Driver/Src/stm32l0xx_hal_rcc_ex.c ****         {
 164:Drivers/STM32L0xx_HAL_Driver/Src/stm32l0xx_hal_rcc_ex.c ****           /* To update HSE divider, first switch-OFF HSE clock oscillator*/
 165:Drivers/STM32L0xx_HAL_Driver/Src/stm32l0xx_hal_rcc_ex.c ****           return HAL_ERROR;
 166:Drivers/STM32L0xx_HAL_Driver/Src/stm32l0xx_hal_rcc_ex.c ****         }
 167:Drivers/STM32L0xx_HAL_Driver/Src/stm32l0xx_hal_rcc_ex.c ****       }
 168:Drivers/STM32L0xx_HAL_Driver/Src/stm32l0xx_hal_rcc_ex.c ****     }
 169:Drivers/STM32L0xx_HAL_Driver/Src/stm32l0xx_hal_rcc_ex.c **** 
 170:Drivers/STM32L0xx_HAL_Driver/Src/stm32l0xx_hal_rcc_ex.c ****     /* Reset the Backup domain only if the RTC Clock source selection is modified from reset value 
 171:Drivers/STM32L0xx_HAL_Driver/Src/stm32l0xx_hal_rcc_ex.c ****     temp_reg = (RCC->CSR & RCC_CSR_RTCSEL);
 113              		.loc 1 171 5 is_stmt 1 view .LVU29
 114              		.loc 1 171 20 is_stmt 0 view .LVU30
 115 0048 554B     		ldr	r3, .L37
ARM GAS  C:\Users\User\AppData\Local\Temp\cc3ubKML.s 			page 6


 116 004a 196D     		ldr	r1, [r3, #80]
 117              		.loc 1 171 14 view .LVU31
 118 004c C023     		movs	r3, #192
 119 004e 9B02     		lsls	r3, r3, #10
 120 0050 0800     		movs	r0, r1
 121 0052 1840     		ands	r0, r3
 122              	.LVL7:
 172:Drivers/STM32L0xx_HAL_Driver/Src/stm32l0xx_hal_rcc_ex.c **** 
 173:Drivers/STM32L0xx_HAL_Driver/Src/stm32l0xx_hal_rcc_ex.c ****     if((temp_reg != 0x00000000U) && (((temp_reg != (PeriphClkInit->RTCClockSelection & RCC_CSR_RTCS
 123              		.loc 1 173 5 is_stmt 1 view .LVU32
 124              		.loc 1 173 7 is_stmt 0 view .LVU33
 125 0054 1942     		tst	r1, r3
 126 0056 15D0     		beq	.L9
 127              		.loc 1 173 86 discriminator 1 view .LVU34
 128 0058 1A40     		ands	r2, r3
 129              		.loc 1 173 34 discriminator 1 view .LVU35
 130 005a 8242     		cmp	r2, r0
 131 005c 12D0     		beq	.L9
 174:Drivers/STM32L0xx_HAL_Driver/Src/stm32l0xx_hal_rcc_ex.c ****       && (((PeriphClkInit->PeriphClockSelection) & RCC_PERIPHCLK_RTC) == RCC_PERIPHCLK_RTC))
 132              		.loc 1 174 26 view .LVU36
 133 005e 2368     		ldr	r3, [r4]
 134              		.loc 1 174 7 view .LVU37
 135 0060 9B06     		lsls	r3, r3, #26
 136 0062 0FD5     		bpl	.L9
 175:Drivers/STM32L0xx_HAL_Driver/Src/stm32l0xx_hal_rcc_ex.c **** #if defined(LCD)
 176:Drivers/STM32L0xx_HAL_Driver/Src/stm32l0xx_hal_rcc_ex.c ****       || ((temp_reg != (PeriphClkInit->LCDClockSelection & RCC_CSR_RTCSEL)) \
 177:Drivers/STM32L0xx_HAL_Driver/Src/stm32l0xx_hal_rcc_ex.c ****        && (((PeriphClkInit->PeriphClockSelection) & RCC_PERIPHCLK_LCD) == RCC_PERIPHCLK_LCD))
 178:Drivers/STM32L0xx_HAL_Driver/Src/stm32l0xx_hal_rcc_ex.c **** #endif /* LCD */
 179:Drivers/STM32L0xx_HAL_Driver/Src/stm32l0xx_hal_rcc_ex.c ****      ))
 180:Drivers/STM32L0xx_HAL_Driver/Src/stm32l0xx_hal_rcc_ex.c ****     {
 181:Drivers/STM32L0xx_HAL_Driver/Src/stm32l0xx_hal_rcc_ex.c ****       /* Store the content of CSR register before the reset of Backup Domain */
 182:Drivers/STM32L0xx_HAL_Driver/Src/stm32l0xx_hal_rcc_ex.c ****       temp_reg = (RCC->CSR & ~(RCC_CSR_RTCSEL));
 137              		.loc 1 182 7 is_stmt 1 view .LVU38
 138              		.loc 1 182 22 is_stmt 0 view .LVU39
 139 0064 4E4B     		ldr	r3, .L37
 140 0066 1A6D     		ldr	r2, [r3, #80]
 141              		.loc 1 182 16 view .LVU40
 142 0068 4F49     		ldr	r1, .L37+8
 143 006a 1140     		ands	r1, r2
 144              	.LVL8:
 183:Drivers/STM32L0xx_HAL_Driver/Src/stm32l0xx_hal_rcc_ex.c **** 
 184:Drivers/STM32L0xx_HAL_Driver/Src/stm32l0xx_hal_rcc_ex.c ****       /* RTC Clock selection can be changed only if the Backup Domain is reset */
 185:Drivers/STM32L0xx_HAL_Driver/Src/stm32l0xx_hal_rcc_ex.c ****       __HAL_RCC_BACKUPRESET_FORCE();
 145              		.loc 1 185 7 is_stmt 1 view .LVU41
 146 006c 1D6D     		ldr	r5, [r3, #80]
 147 006e 8020     		movs	r0, #128
 148 0070 0003     		lsls	r0, r0, #12
 149 0072 2843     		orrs	r0, r5
 150 0074 1865     		str	r0, [r3, #80]
 186:Drivers/STM32L0xx_HAL_Driver/Src/stm32l0xx_hal_rcc_ex.c ****       __HAL_RCC_BACKUPRESET_RELEASE();
 151              		.loc 1 186 7 view .LVU42
 152 0076 186D     		ldr	r0, [r3, #80]
 153 0078 4C4D     		ldr	r5, .L37+12
 154 007a 2840     		ands	r0, r5
 155 007c 1865     		str	r0, [r3, #80]
 187:Drivers/STM32L0xx_HAL_Driver/Src/stm32l0xx_hal_rcc_ex.c **** 
 188:Drivers/STM32L0xx_HAL_Driver/Src/stm32l0xx_hal_rcc_ex.c ****       /* Restore the Content of CSR register */
ARM GAS  C:\Users\User\AppData\Local\Temp\cc3ubKML.s 			page 7


 189:Drivers/STM32L0xx_HAL_Driver/Src/stm32l0xx_hal_rcc_ex.c ****       RCC->CSR = temp_reg;
 156              		.loc 1 189 7 view .LVU43
 157              		.loc 1 189 16 is_stmt 0 view .LVU44
 158 007e 1965     		str	r1, [r3, #80]
 190:Drivers/STM32L0xx_HAL_Driver/Src/stm32l0xx_hal_rcc_ex.c **** 
 191:Drivers/STM32L0xx_HAL_Driver/Src/stm32l0xx_hal_rcc_ex.c ****        /* Wait for LSERDY if LSE was enabled */
 192:Drivers/STM32L0xx_HAL_Driver/Src/stm32l0xx_hal_rcc_ex.c ****       if (HAL_IS_BIT_SET(temp_reg, RCC_CSR_LSEON))
 159              		.loc 1 192 7 is_stmt 1 view .LVU45
 160              		.loc 1 192 10 is_stmt 0 view .LVU46
 161 0080 D205     		lsls	r2, r2, #23
 162 0082 6CD4     		bmi	.L34
 163              	.LVL9:
 164              	.L9:
 193:Drivers/STM32L0xx_HAL_Driver/Src/stm32l0xx_hal_rcc_ex.c ****       {
 194:Drivers/STM32L0xx_HAL_Driver/Src/stm32l0xx_hal_rcc_ex.c ****         /* Get Start Tick */
 195:Drivers/STM32L0xx_HAL_Driver/Src/stm32l0xx_hal_rcc_ex.c ****         tickstart = HAL_GetTick();
 196:Drivers/STM32L0xx_HAL_Driver/Src/stm32l0xx_hal_rcc_ex.c **** 
 197:Drivers/STM32L0xx_HAL_Driver/Src/stm32l0xx_hal_rcc_ex.c ****         /* Wait till LSE is ready */
 198:Drivers/STM32L0xx_HAL_Driver/Src/stm32l0xx_hal_rcc_ex.c ****         while(__HAL_RCC_GET_FLAG(RCC_FLAG_LSERDY) == 0U)
 199:Drivers/STM32L0xx_HAL_Driver/Src/stm32l0xx_hal_rcc_ex.c ****         {
 200:Drivers/STM32L0xx_HAL_Driver/Src/stm32l0xx_hal_rcc_ex.c ****           if((HAL_GetTick() - tickstart ) > RCC_LSE_TIMEOUT_VALUE)
 201:Drivers/STM32L0xx_HAL_Driver/Src/stm32l0xx_hal_rcc_ex.c ****           {
 202:Drivers/STM32L0xx_HAL_Driver/Src/stm32l0xx_hal_rcc_ex.c ****             return HAL_TIMEOUT;
 203:Drivers/STM32L0xx_HAL_Driver/Src/stm32l0xx_hal_rcc_ex.c ****           }
 204:Drivers/STM32L0xx_HAL_Driver/Src/stm32l0xx_hal_rcc_ex.c ****         }
 205:Drivers/STM32L0xx_HAL_Driver/Src/stm32l0xx_hal_rcc_ex.c ****       }
 206:Drivers/STM32L0xx_HAL_Driver/Src/stm32l0xx_hal_rcc_ex.c ****     }
 207:Drivers/STM32L0xx_HAL_Driver/Src/stm32l0xx_hal_rcc_ex.c ****     __HAL_RCC_RTC_CONFIG(PeriphClkInit->RTCClockSelection);
 165              		.loc 1 207 5 is_stmt 1 view .LVU47
 166              		.loc 1 207 5 view .LVU48
 167              		.loc 1 207 5 view .LVU49
 168 0084 6368     		ldr	r3, [r4, #4]
 169 0086 C022     		movs	r2, #192
 170 0088 9202     		lsls	r2, r2, #10
 171 008a 1900     		movs	r1, r3
 172 008c 1140     		ands	r1, r2
 173 008e 9142     		cmp	r1, r2
 174 0090 74D0     		beq	.L35
 175              	.L12:
 176              		.loc 1 207 5 discriminator 3 view .LVU50
 177              		.loc 1 207 5 discriminator 3 view .LVU51
 178 0092 4349     		ldr	r1, .L37
 179 0094 0B6D     		ldr	r3, [r1, #80]
 180 0096 6268     		ldr	r2, [r4, #4]
 181 0098 C020     		movs	r0, #192
 182 009a 8002     		lsls	r0, r0, #10
 183 009c 0240     		ands	r2, r0
 184 009e 1343     		orrs	r3, r2
 185 00a0 0B65     		str	r3, [r1, #80]
 186              		.loc 1 207 5 discriminator 3 view .LVU52
 208:Drivers/STM32L0xx_HAL_Driver/Src/stm32l0xx_hal_rcc_ex.c **** 
 209:Drivers/STM32L0xx_HAL_Driver/Src/stm32l0xx_hal_rcc_ex.c ****     /* Require to disable power clock if necessary */
 210:Drivers/STM32L0xx_HAL_Driver/Src/stm32l0xx_hal_rcc_ex.c ****     if(pwrclkchanged == SET)
 187              		.loc 1 210 5 discriminator 3 view .LVU53
 188              		.loc 1 210 7 is_stmt 0 discriminator 3 view .LVU54
 189 00a2 012E     		cmp	r6, #1
 190 00a4 74D0     		beq	.L36
ARM GAS  C:\Users\User\AppData\Local\Temp\cc3ubKML.s 			page 8


 191              	.LVL10:
 192              	.L2:
 211:Drivers/STM32L0xx_HAL_Driver/Src/stm32l0xx_hal_rcc_ex.c ****     {
 212:Drivers/STM32L0xx_HAL_Driver/Src/stm32l0xx_hal_rcc_ex.c ****       __HAL_RCC_PWR_CLK_DISABLE();
 213:Drivers/STM32L0xx_HAL_Driver/Src/stm32l0xx_hal_rcc_ex.c ****     }
 214:Drivers/STM32L0xx_HAL_Driver/Src/stm32l0xx_hal_rcc_ex.c ****   }
 215:Drivers/STM32L0xx_HAL_Driver/Src/stm32l0xx_hal_rcc_ex.c **** 
 216:Drivers/STM32L0xx_HAL_Driver/Src/stm32l0xx_hal_rcc_ex.c **** #if defined (RCC_CCIPR_USART1SEL)
 217:Drivers/STM32L0xx_HAL_Driver/Src/stm32l0xx_hal_rcc_ex.c ****   /*------------------------------- USART1 Configuration ------------------------*/
 218:Drivers/STM32L0xx_HAL_Driver/Src/stm32l0xx_hal_rcc_ex.c ****   if(((PeriphClkInit->PeriphClockSelection) & RCC_PERIPHCLK_USART1) == RCC_PERIPHCLK_USART1)
 193              		.loc 1 218 3 is_stmt 1 view .LVU55
 194              		.loc 1 218 21 is_stmt 0 view .LVU56
 195 00a6 2368     		ldr	r3, [r4]
 196              		.loc 1 218 5 view .LVU57
 197 00a8 DB07     		lsls	r3, r3, #31
 198 00aa 06D5     		bpl	.L13
 219:Drivers/STM32L0xx_HAL_Driver/Src/stm32l0xx_hal_rcc_ex.c ****   {
 220:Drivers/STM32L0xx_HAL_Driver/Src/stm32l0xx_hal_rcc_ex.c ****     /* Check the parameters */
 221:Drivers/STM32L0xx_HAL_Driver/Src/stm32l0xx_hal_rcc_ex.c ****     assert_param(IS_RCC_USART1CLKSOURCE(PeriphClkInit->Usart1ClockSelection));
 199              		.loc 1 221 5 is_stmt 1 view .LVU58
 222:Drivers/STM32L0xx_HAL_Driver/Src/stm32l0xx_hal_rcc_ex.c **** 
 223:Drivers/STM32L0xx_HAL_Driver/Src/stm32l0xx_hal_rcc_ex.c ****     /* Configure the USART1 clock source */
 224:Drivers/STM32L0xx_HAL_Driver/Src/stm32l0xx_hal_rcc_ex.c ****     __HAL_RCC_USART1_CONFIG(PeriphClkInit->Usart1ClockSelection);
 200              		.loc 1 224 5 view .LVU59
 201 00ac 3C4A     		ldr	r2, .L37
 202 00ae D36C     		ldr	r3, [r2, #76]
 203 00b0 0321     		movs	r1, #3
 204 00b2 8B43     		bics	r3, r1
 205 00b4 A168     		ldr	r1, [r4, #8]
 206 00b6 0B43     		orrs	r3, r1
 207 00b8 D364     		str	r3, [r2, #76]
 208              	.L13:
 225:Drivers/STM32L0xx_HAL_Driver/Src/stm32l0xx_hal_rcc_ex.c ****   }
 226:Drivers/STM32L0xx_HAL_Driver/Src/stm32l0xx_hal_rcc_ex.c **** #endif /* RCC_CCIPR_USART1SEL */
 227:Drivers/STM32L0xx_HAL_Driver/Src/stm32l0xx_hal_rcc_ex.c **** 
 228:Drivers/STM32L0xx_HAL_Driver/Src/stm32l0xx_hal_rcc_ex.c ****   /*----------------------------- USART2 Configuration --------------------------*/
 229:Drivers/STM32L0xx_HAL_Driver/Src/stm32l0xx_hal_rcc_ex.c ****   if(((PeriphClkInit->PeriphClockSelection) & RCC_PERIPHCLK_USART2) == RCC_PERIPHCLK_USART2)
 209              		.loc 1 229 3 view .LVU60
 210              		.loc 1 229 21 is_stmt 0 view .LVU61
 211 00ba 2368     		ldr	r3, [r4]
 212              		.loc 1 229 5 view .LVU62
 213 00bc 9B07     		lsls	r3, r3, #30
 214 00be 06D5     		bpl	.L14
 230:Drivers/STM32L0xx_HAL_Driver/Src/stm32l0xx_hal_rcc_ex.c ****   {
 231:Drivers/STM32L0xx_HAL_Driver/Src/stm32l0xx_hal_rcc_ex.c ****     /* Check the parameters */
 232:Drivers/STM32L0xx_HAL_Driver/Src/stm32l0xx_hal_rcc_ex.c ****     assert_param(IS_RCC_USART2CLKSOURCE(PeriphClkInit->Usart2ClockSelection));
 215              		.loc 1 232 5 is_stmt 1 view .LVU63
 233:Drivers/STM32L0xx_HAL_Driver/Src/stm32l0xx_hal_rcc_ex.c **** 
 234:Drivers/STM32L0xx_HAL_Driver/Src/stm32l0xx_hal_rcc_ex.c ****     /* Configure the USART2 clock source */
 235:Drivers/STM32L0xx_HAL_Driver/Src/stm32l0xx_hal_rcc_ex.c ****     __HAL_RCC_USART2_CONFIG(PeriphClkInit->Usart2ClockSelection);
 216              		.loc 1 235 5 view .LVU64
 217 00c0 374A     		ldr	r2, .L37
 218 00c2 D36C     		ldr	r3, [r2, #76]
 219 00c4 0C21     		movs	r1, #12
 220 00c6 8B43     		bics	r3, r1
 221 00c8 E168     		ldr	r1, [r4, #12]
 222 00ca 0B43     		orrs	r3, r1
ARM GAS  C:\Users\User\AppData\Local\Temp\cc3ubKML.s 			page 9


 223 00cc D364     		str	r3, [r2, #76]
 224              	.L14:
 236:Drivers/STM32L0xx_HAL_Driver/Src/stm32l0xx_hal_rcc_ex.c ****   }
 237:Drivers/STM32L0xx_HAL_Driver/Src/stm32l0xx_hal_rcc_ex.c **** 
 238:Drivers/STM32L0xx_HAL_Driver/Src/stm32l0xx_hal_rcc_ex.c ****   /*------------------------------ LPUART1 Configuration ------------------------*/
 239:Drivers/STM32L0xx_HAL_Driver/Src/stm32l0xx_hal_rcc_ex.c ****   if(((PeriphClkInit->PeriphClockSelection) & RCC_PERIPHCLK_LPUART1) == RCC_PERIPHCLK_LPUART1)
 225              		.loc 1 239 3 view .LVU65
 226              		.loc 1 239 21 is_stmt 0 view .LVU66
 227 00ce 2368     		ldr	r3, [r4]
 228              		.loc 1 239 5 view .LVU67
 229 00d0 5B07     		lsls	r3, r3, #29
 230 00d2 06D5     		bpl	.L15
 240:Drivers/STM32L0xx_HAL_Driver/Src/stm32l0xx_hal_rcc_ex.c ****   {
 241:Drivers/STM32L0xx_HAL_Driver/Src/stm32l0xx_hal_rcc_ex.c ****     /* Check the parameters */
 242:Drivers/STM32L0xx_HAL_Driver/Src/stm32l0xx_hal_rcc_ex.c ****     assert_param(IS_RCC_LPUART1CLKSOURCE(PeriphClkInit->Lpuart1ClockSelection));
 231              		.loc 1 242 5 is_stmt 1 view .LVU68
 243:Drivers/STM32L0xx_HAL_Driver/Src/stm32l0xx_hal_rcc_ex.c **** 
 244:Drivers/STM32L0xx_HAL_Driver/Src/stm32l0xx_hal_rcc_ex.c ****     /* Configure the LPUAR1 clock source */
 245:Drivers/STM32L0xx_HAL_Driver/Src/stm32l0xx_hal_rcc_ex.c ****     __HAL_RCC_LPUART1_CONFIG(PeriphClkInit->Lpuart1ClockSelection);
 232              		.loc 1 245 5 view .LVU69
 233 00d4 324A     		ldr	r2, .L37
 234 00d6 D36C     		ldr	r3, [r2, #76]
 235 00d8 3549     		ldr	r1, .L37+16
 236 00da 0B40     		ands	r3, r1
 237 00dc 2169     		ldr	r1, [r4, #16]
 238 00de 0B43     		orrs	r3, r1
 239 00e0 D364     		str	r3, [r2, #76]
 240              	.L15:
 246:Drivers/STM32L0xx_HAL_Driver/Src/stm32l0xx_hal_rcc_ex.c ****   }
 247:Drivers/STM32L0xx_HAL_Driver/Src/stm32l0xx_hal_rcc_ex.c **** 
 248:Drivers/STM32L0xx_HAL_Driver/Src/stm32l0xx_hal_rcc_ex.c ****   /*------------------------------ I2C1 Configuration ------------------------*/
 249:Drivers/STM32L0xx_HAL_Driver/Src/stm32l0xx_hal_rcc_ex.c ****   if(((PeriphClkInit->PeriphClockSelection) & RCC_PERIPHCLK_I2C1) == RCC_PERIPHCLK_I2C1)
 241              		.loc 1 249 3 view .LVU70
 242              		.loc 1 249 21 is_stmt 0 view .LVU71
 243 00e2 2368     		ldr	r3, [r4]
 244              		.loc 1 249 5 view .LVU72
 245 00e4 1B07     		lsls	r3, r3, #28
 246 00e6 06D5     		bpl	.L16
 250:Drivers/STM32L0xx_HAL_Driver/Src/stm32l0xx_hal_rcc_ex.c ****   {
 251:Drivers/STM32L0xx_HAL_Driver/Src/stm32l0xx_hal_rcc_ex.c ****     /* Check the parameters */
 252:Drivers/STM32L0xx_HAL_Driver/Src/stm32l0xx_hal_rcc_ex.c ****     assert_param(IS_RCC_I2C1CLKSOURCE(PeriphClkInit->I2c1ClockSelection));
 247              		.loc 1 252 5 is_stmt 1 view .LVU73
 253:Drivers/STM32L0xx_HAL_Driver/Src/stm32l0xx_hal_rcc_ex.c **** 
 254:Drivers/STM32L0xx_HAL_Driver/Src/stm32l0xx_hal_rcc_ex.c ****     /* Configure the I2C1 clock source */
 255:Drivers/STM32L0xx_HAL_Driver/Src/stm32l0xx_hal_rcc_ex.c ****     __HAL_RCC_I2C1_CONFIG(PeriphClkInit->I2c1ClockSelection);
 248              		.loc 1 255 5 view .LVU74
 249 00e8 2D4A     		ldr	r2, .L37
 250 00ea D36C     		ldr	r3, [r2, #76]
 251 00ec 3149     		ldr	r1, .L37+20
 252 00ee 0B40     		ands	r3, r1
 253 00f0 6169     		ldr	r1, [r4, #20]
 254 00f2 0B43     		orrs	r3, r1
 255 00f4 D364     		str	r3, [r2, #76]
 256              	.L16:
 256:Drivers/STM32L0xx_HAL_Driver/Src/stm32l0xx_hal_rcc_ex.c ****   }
 257:Drivers/STM32L0xx_HAL_Driver/Src/stm32l0xx_hal_rcc_ex.c **** 
 258:Drivers/STM32L0xx_HAL_Driver/Src/stm32l0xx_hal_rcc_ex.c **** #if defined (RCC_CCIPR_I2C3SEL)
ARM GAS  C:\Users\User\AppData\Local\Temp\cc3ubKML.s 			page 10


 259:Drivers/STM32L0xx_HAL_Driver/Src/stm32l0xx_hal_rcc_ex.c ****     /*------------------------------ I2C3 Configuration ------------------------*/
 260:Drivers/STM32L0xx_HAL_Driver/Src/stm32l0xx_hal_rcc_ex.c ****   if(((PeriphClkInit->PeriphClockSelection) & RCC_PERIPHCLK_I2C3) == RCC_PERIPHCLK_I2C3)
 257              		.loc 1 260 3 view .LVU75
 258              		.loc 1 260 21 is_stmt 0 view .LVU76
 259 00f6 2368     		ldr	r3, [r4]
 260              		.loc 1 260 5 view .LVU77
 261 00f8 DB05     		lsls	r3, r3, #23
 262 00fa 06D5     		bpl	.L17
 261:Drivers/STM32L0xx_HAL_Driver/Src/stm32l0xx_hal_rcc_ex.c ****   {
 262:Drivers/STM32L0xx_HAL_Driver/Src/stm32l0xx_hal_rcc_ex.c ****     /* Check the parameters */
 263:Drivers/STM32L0xx_HAL_Driver/Src/stm32l0xx_hal_rcc_ex.c ****     assert_param(IS_RCC_I2C3CLKSOURCE(PeriphClkInit->I2c3ClockSelection));
 263              		.loc 1 263 5 is_stmt 1 view .LVU78
 264:Drivers/STM32L0xx_HAL_Driver/Src/stm32l0xx_hal_rcc_ex.c **** 
 265:Drivers/STM32L0xx_HAL_Driver/Src/stm32l0xx_hal_rcc_ex.c ****     /* Configure the I2C3 clock source */
 266:Drivers/STM32L0xx_HAL_Driver/Src/stm32l0xx_hal_rcc_ex.c ****     __HAL_RCC_I2C3_CONFIG(PeriphClkInit->I2c3ClockSelection);
 264              		.loc 1 266 5 view .LVU79
 265 00fc 284A     		ldr	r2, .L37
 266 00fe D36C     		ldr	r3, [r2, #76]
 267 0100 2949     		ldr	r1, .L37+8
 268 0102 0B40     		ands	r3, r1
 269 0104 A169     		ldr	r1, [r4, #24]
 270 0106 0B43     		orrs	r3, r1
 271 0108 D364     		str	r3, [r2, #76]
 272              	.L17:
 267:Drivers/STM32L0xx_HAL_Driver/Src/stm32l0xx_hal_rcc_ex.c ****   }
 268:Drivers/STM32L0xx_HAL_Driver/Src/stm32l0xx_hal_rcc_ex.c **** #endif /* RCC_CCIPR_I2C3SEL */
 269:Drivers/STM32L0xx_HAL_Driver/Src/stm32l0xx_hal_rcc_ex.c **** 
 270:Drivers/STM32L0xx_HAL_Driver/Src/stm32l0xx_hal_rcc_ex.c **** #if defined(USB)
 271:Drivers/STM32L0xx_HAL_Driver/Src/stm32l0xx_hal_rcc_ex.c ****  /*---------------------------- USB and RNG configuration --------------------*/
 272:Drivers/STM32L0xx_HAL_Driver/Src/stm32l0xx_hal_rcc_ex.c ****   if(((PeriphClkInit->PeriphClockSelection) & RCC_PERIPHCLK_USB) == (RCC_PERIPHCLK_USB))
 273:Drivers/STM32L0xx_HAL_Driver/Src/stm32l0xx_hal_rcc_ex.c ****   {
 274:Drivers/STM32L0xx_HAL_Driver/Src/stm32l0xx_hal_rcc_ex.c ****     assert_param(IS_RCC_USBCLKSOURCE(PeriphClkInit->UsbClockSelection));
 275:Drivers/STM32L0xx_HAL_Driver/Src/stm32l0xx_hal_rcc_ex.c ****     __HAL_RCC_USB_CONFIG(PeriphClkInit->UsbClockSelection);
 276:Drivers/STM32L0xx_HAL_Driver/Src/stm32l0xx_hal_rcc_ex.c ****   }
 277:Drivers/STM32L0xx_HAL_Driver/Src/stm32l0xx_hal_rcc_ex.c **** #endif /* USB */
 278:Drivers/STM32L0xx_HAL_Driver/Src/stm32l0xx_hal_rcc_ex.c **** 
 279:Drivers/STM32L0xx_HAL_Driver/Src/stm32l0xx_hal_rcc_ex.c ****   /*---------------------------- LPTIM1 configuration ------------------------*/
 280:Drivers/STM32L0xx_HAL_Driver/Src/stm32l0xx_hal_rcc_ex.c ****   if(((PeriphClkInit->PeriphClockSelection) & RCC_PERIPHCLK_LPTIM1) == (RCC_PERIPHCLK_LPTIM1))
 273              		.loc 1 280 3 view .LVU80
 274              		.loc 1 280 21 is_stmt 0 view .LVU81
 275 010a 2368     		ldr	r3, [r4]
 276              		.loc 1 280 5 view .LVU82
 277 010c 1B06     		lsls	r3, r3, #24
 278 010e 45D5     		bpl	.L22
 281:Drivers/STM32L0xx_HAL_Driver/Src/stm32l0xx_hal_rcc_ex.c ****   {
 282:Drivers/STM32L0xx_HAL_Driver/Src/stm32l0xx_hal_rcc_ex.c ****     assert_param(IS_RCC_LPTIMCLK(PeriphClkInit->LptimClockSelection));
 279              		.loc 1 282 5 is_stmt 1 view .LVU83
 283:Drivers/STM32L0xx_HAL_Driver/Src/stm32l0xx_hal_rcc_ex.c ****     __HAL_RCC_LPTIM1_CONFIG(PeriphClkInit->LptimClockSelection);
 280              		.loc 1 283 5 view .LVU84
 281 0110 234A     		ldr	r2, .L37
 282 0112 D36C     		ldr	r3, [r2, #76]
 283 0114 2849     		ldr	r1, .L37+24
 284 0116 0B40     		ands	r3, r1
 285 0118 E169     		ldr	r1, [r4, #28]
 286 011a 0B43     		orrs	r3, r1
 287 011c D364     		str	r3, [r2, #76]
 284:Drivers/STM32L0xx_HAL_Driver/Src/stm32l0xx_hal_rcc_ex.c ****   }
ARM GAS  C:\Users\User\AppData\Local\Temp\cc3ubKML.s 			page 11


 285:Drivers/STM32L0xx_HAL_Driver/Src/stm32l0xx_hal_rcc_ex.c **** 
 286:Drivers/STM32L0xx_HAL_Driver/Src/stm32l0xx_hal_rcc_ex.c ****   return HAL_OK;
 288              		.loc 1 286 10 is_stmt 0 view .LVU85
 289 011e 0020     		movs	r0, #0
 290 0120 3DE0     		b	.L6
 291              	.LVL11:
 292              	.L18:
 101:Drivers/STM32L0xx_HAL_Driver/Src/stm32l0xx_hal_rcc_ex.c **** 
 293              		.loc 1 101 20 view .LVU86
 294 0122 0026     		movs	r6, #0
 295 0124 7DE7     		b	.L3
 296              	.LVL12:
 297              	.L32:
 138:Drivers/STM32L0xx_HAL_Driver/Src/stm32l0xx_hal_rcc_ex.c **** 
 298              		.loc 1 138 7 is_stmt 1 view .LVU87
 299 0126 1F4A     		ldr	r2, .L37+4
 300 0128 1168     		ldr	r1, [r2]
 301 012a 8023     		movs	r3, #128
 302 012c 5B00     		lsls	r3, r3, #1
 303 012e 0B43     		orrs	r3, r1
 304 0130 1360     		str	r3, [r2]
 141:Drivers/STM32L0xx_HAL_Driver/Src/stm32l0xx_hal_rcc_ex.c **** 
 305              		.loc 1 141 7 view .LVU88
 141:Drivers/STM32L0xx_HAL_Driver/Src/stm32l0xx_hal_rcc_ex.c **** 
 306              		.loc 1 141 19 is_stmt 0 view .LVU89
 307 0132 FFF7FEFF 		bl	HAL_GetTick
 308              	.LVL13:
 141:Drivers/STM32L0xx_HAL_Driver/Src/stm32l0xx_hal_rcc_ex.c **** 
 309              		.loc 1 141 19 view .LVU90
 310 0136 0500     		movs	r5, r0
 311              	.LVL14:
 143:Drivers/STM32L0xx_HAL_Driver/Src/stm32l0xx_hal_rcc_ex.c ****       {
 312              		.loc 1 143 7 is_stmt 1 view .LVU91
 313              	.L5:
 143:Drivers/STM32L0xx_HAL_Driver/Src/stm32l0xx_hal_rcc_ex.c ****       {
 314              		.loc 1 143 13 view .LVU92
 315 0138 1A4B     		ldr	r3, .L37+4
 316 013a 1B68     		ldr	r3, [r3]
 317 013c DB05     		lsls	r3, r3, #23
 318 013e 00D5     		bpl	.LCB286
 319 0140 73E7     		b	.L4	@long jump
 320              	.LCB286:
 145:Drivers/STM32L0xx_HAL_Driver/Src/stm32l0xx_hal_rcc_ex.c ****         {
 321              		.loc 1 145 9 view .LVU93
 145:Drivers/STM32L0xx_HAL_Driver/Src/stm32l0xx_hal_rcc_ex.c ****         {
 322              		.loc 1 145 13 is_stmt 0 view .LVU94
 323 0142 FFF7FEFF 		bl	HAL_GetTick
 324              	.LVL15:
 145:Drivers/STM32L0xx_HAL_Driver/Src/stm32l0xx_hal_rcc_ex.c ****         {
 325              		.loc 1 145 27 view .LVU95
 326 0146 401B     		subs	r0, r0, r5
 145:Drivers/STM32L0xx_HAL_Driver/Src/stm32l0xx_hal_rcc_ex.c ****         {
 327              		.loc 1 145 11 view .LVU96
 328 0148 6428     		cmp	r0, #100
 329 014a F5D9     		bls	.L5
 147:Drivers/STM32L0xx_HAL_Driver/Src/stm32l0xx_hal_rcc_ex.c ****         }
 330              		.loc 1 147 18 view .LVU97
ARM GAS  C:\Users\User\AppData\Local\Temp\cc3ubKML.s 			page 12


 331 014c 0320     		movs	r0, #3
 332 014e 26E0     		b	.L6
 333              	.LVL16:
 334              	.L33:
 162:Drivers/STM32L0xx_HAL_Driver/Src/stm32l0xx_hal_rcc_ex.c ****         {
 335              		.loc 1 162 9 is_stmt 1 view .LVU98
 162:Drivers/STM32L0xx_HAL_Driver/Src/stm32l0xx_hal_rcc_ex.c ****         {
 336              		.loc 1 162 13 is_stmt 0 view .LVU99
 337 0150 134B     		ldr	r3, .L37
 338 0152 1B68     		ldr	r3, [r3]
 162:Drivers/STM32L0xx_HAL_Driver/Src/stm32l0xx_hal_rcc_ex.c ****         {
 339              		.loc 1 162 12 view .LVU100
 340 0154 9B03     		lsls	r3, r3, #14
 341 0156 00D4     		bmi	.LCB307
 342 0158 76E7     		b	.L8	@long jump
 343              	.LCB307:
 165:Drivers/STM32L0xx_HAL_Driver/Src/stm32l0xx_hal_rcc_ex.c ****         }
 344              		.loc 1 165 18 view .LVU101
 345 015a 0120     		movs	r0, #1
 346 015c 1FE0     		b	.L6
 347              	.LVL17:
 348              	.L34:
 195:Drivers/STM32L0xx_HAL_Driver/Src/stm32l0xx_hal_rcc_ex.c **** 
 349              		.loc 1 195 9 is_stmt 1 view .LVU102
 195:Drivers/STM32L0xx_HAL_Driver/Src/stm32l0xx_hal_rcc_ex.c **** 
 350              		.loc 1 195 21 is_stmt 0 view .LVU103
 351 015e FFF7FEFF 		bl	HAL_GetTick
 352              	.LVL18:
 195:Drivers/STM32L0xx_HAL_Driver/Src/stm32l0xx_hal_rcc_ex.c **** 
 353              		.loc 1 195 21 view .LVU104
 354 0162 0500     		movs	r5, r0
 355              	.LVL19:
 198:Drivers/STM32L0xx_HAL_Driver/Src/stm32l0xx_hal_rcc_ex.c ****         {
 356              		.loc 1 198 9 is_stmt 1 view .LVU105
 357              	.L10:
 198:Drivers/STM32L0xx_HAL_Driver/Src/stm32l0xx_hal_rcc_ex.c ****         {
 358              		.loc 1 198 51 view .LVU106
 198:Drivers/STM32L0xx_HAL_Driver/Src/stm32l0xx_hal_rcc_ex.c ****         {
 359              		.loc 1 198 15 is_stmt 0 view .LVU107
 360 0164 0E4B     		ldr	r3, .L37
 361 0166 1B6D     		ldr	r3, [r3, #80]
 198:Drivers/STM32L0xx_HAL_Driver/Src/stm32l0xx_hal_rcc_ex.c ****         {
 362              		.loc 1 198 51 view .LVU108
 363 0168 9B05     		lsls	r3, r3, #22
 364 016a 8BD4     		bmi	.L9
 200:Drivers/STM32L0xx_HAL_Driver/Src/stm32l0xx_hal_rcc_ex.c ****           {
 365              		.loc 1 200 11 is_stmt 1 view .LVU109
 200:Drivers/STM32L0xx_HAL_Driver/Src/stm32l0xx_hal_rcc_ex.c ****           {
 366              		.loc 1 200 15 is_stmt 0 view .LVU110
 367 016c FFF7FEFF 		bl	HAL_GetTick
 368              	.LVL20:
 200:Drivers/STM32L0xx_HAL_Driver/Src/stm32l0xx_hal_rcc_ex.c ****           {
 369              		.loc 1 200 29 view .LVU111
 370 0170 401B     		subs	r0, r0, r5
 200:Drivers/STM32L0xx_HAL_Driver/Src/stm32l0xx_hal_rcc_ex.c ****           {
 371              		.loc 1 200 13 view .LVU112
 372 0172 124B     		ldr	r3, .L37+28
ARM GAS  C:\Users\User\AppData\Local\Temp\cc3ubKML.s 			page 13


 373 0174 9842     		cmp	r0, r3
 374 0176 F5D9     		bls	.L10
 202:Drivers/STM32L0xx_HAL_Driver/Src/stm32l0xx_hal_rcc_ex.c ****           }
 375              		.loc 1 202 20 view .LVU113
 376 0178 0320     		movs	r0, #3
 377 017a 10E0     		b	.L6
 378              	.LVL21:
 379              	.L35:
 207:Drivers/STM32L0xx_HAL_Driver/Src/stm32l0xx_hal_rcc_ex.c **** 
 380              		.loc 1 207 5 is_stmt 1 discriminator 1 view .LVU114
 381 017c 0849     		ldr	r1, .L37
 382 017e 0A68     		ldr	r2, [r1]
 383 0180 0F48     		ldr	r0, .L37+32
 384 0182 0240     		ands	r2, r0
 385 0184 C020     		movs	r0, #192
 386 0186 8003     		lsls	r0, r0, #14
 387 0188 0340     		ands	r3, r0
 388 018a 1343     		orrs	r3, r2
 389 018c 0B60     		str	r3, [r1]
 390 018e 80E7     		b	.L12
 391              	.L36:
 212:Drivers/STM32L0xx_HAL_Driver/Src/stm32l0xx_hal_rcc_ex.c ****     }
 392              		.loc 1 212 7 view .LVU115
 393 0190 0A00     		movs	r2, r1
 394 0192 8B6B     		ldr	r3, [r1, #56]
 395 0194 0B49     		ldr	r1, .L37+36
 396 0196 0B40     		ands	r3, r1
 397 0198 9363     		str	r3, [r2, #56]
 398 019a 84E7     		b	.L2
 399              	.LVL22:
 400              	.L22:
 401              		.loc 1 286 10 is_stmt 0 view .LVU116
 402 019c 0020     		movs	r0, #0
 403              	.L6:
 287:Drivers/STM32L0xx_HAL_Driver/Src/stm32l0xx_hal_rcc_ex.c **** }
 404              		.loc 1 287 1 view .LVU117
 405              		@ sp needed
 406              	.LVL23:
 407              		.loc 1 287 1 view .LVU118
 408 019e 70BD     		pop	{r4, r5, r6, pc}
 409              	.L38:
 410              		.align	2
 411              	.L37:
 412 01a0 00100240 		.word	1073876992
 413 01a4 00700040 		.word	1073770496
 414 01a8 FFFFFCFF 		.word	-196609
 415 01ac FFFFF7FF 		.word	-524289
 416 01b0 FFF3FFFF 		.word	-3073
 417 01b4 FFCFFFFF 		.word	-12289
 418 01b8 FFFFF3FF 		.word	-786433
 419 01bc 88130000 		.word	5000
 420 01c0 FFFFCFFF 		.word	-3145729
 421 01c4 FFFFFFEF 		.word	-268435457
 422              		.cfi_endproc
 423              	.LFE47:
 425              		.section	.text.HAL_RCCEx_GetPeriphCLKConfig,"ax",%progbits
 426              		.align	1
ARM GAS  C:\Users\User\AppData\Local\Temp\cc3ubKML.s 			page 14


 427              		.global	HAL_RCCEx_GetPeriphCLKConfig
 428              		.syntax unified
 429              		.code	16
 430              		.thumb_func
 432              	HAL_RCCEx_GetPeriphCLKConfig:
 433              	.LVL24:
 434              	.LFB48:
 288:Drivers/STM32L0xx_HAL_Driver/Src/stm32l0xx_hal_rcc_ex.c **** 
 289:Drivers/STM32L0xx_HAL_Driver/Src/stm32l0xx_hal_rcc_ex.c **** /**
 290:Drivers/STM32L0xx_HAL_Driver/Src/stm32l0xx_hal_rcc_ex.c ****   * @brief  Get the PeriphClkInit according to the internal RCC configuration registers.
 291:Drivers/STM32L0xx_HAL_Driver/Src/stm32l0xx_hal_rcc_ex.c ****   * @param  PeriphClkInit pointer to an RCC_PeriphCLKInitTypeDef structure that
 292:Drivers/STM32L0xx_HAL_Driver/Src/stm32l0xx_hal_rcc_ex.c ****   *         returns the configuration information for the Extended Peripherals clocks(USART1,USART2
 293:Drivers/STM32L0xx_HAL_Driver/Src/stm32l0xx_hal_rcc_ex.c ****   *         I2C1, I2C3, RTC, USB/RNG  and LPTIM1 clocks).
 294:Drivers/STM32L0xx_HAL_Driver/Src/stm32l0xx_hal_rcc_ex.c ****   * @retval None
 295:Drivers/STM32L0xx_HAL_Driver/Src/stm32l0xx_hal_rcc_ex.c ****   */
 296:Drivers/STM32L0xx_HAL_Driver/Src/stm32l0xx_hal_rcc_ex.c **** void HAL_RCCEx_GetPeriphCLKConfig(RCC_PeriphCLKInitTypeDef  *PeriphClkInit)
 297:Drivers/STM32L0xx_HAL_Driver/Src/stm32l0xx_hal_rcc_ex.c **** {
 435              		.loc 1 297 1 is_stmt 1 view -0
 436              		.cfi_startproc
 437              		@ args = 0, pretend = 0, frame = 0
 438              		@ frame_needed = 0, uses_anonymous_args = 0
 439              		.loc 1 297 1 is_stmt 0 view .LVU120
 440 0000 10B5     		push	{r4, lr}
 441              	.LCFI1:
 442              		.cfi_def_cfa_offset 8
 443              		.cfi_offset 4, -8
 444              		.cfi_offset 14, -4
 298:Drivers/STM32L0xx_HAL_Driver/Src/stm32l0xx_hal_rcc_ex.c ****   uint32_t srcclk;
 445              		.loc 1 298 3 is_stmt 1 view .LVU121
 299:Drivers/STM32L0xx_HAL_Driver/Src/stm32l0xx_hal_rcc_ex.c **** 
 300:Drivers/STM32L0xx_HAL_Driver/Src/stm32l0xx_hal_rcc_ex.c ****    /* Set all possible values for the extended clock type parameter -----------*/
 301:Drivers/STM32L0xx_HAL_Driver/Src/stm32l0xx_hal_rcc_ex.c ****   /* Common part first */
 302:Drivers/STM32L0xx_HAL_Driver/Src/stm32l0xx_hal_rcc_ex.c ****   PeriphClkInit->PeriphClockSelection = RCC_PERIPHCLK_USART2 | RCC_PERIPHCLK_LPUART1 | \
 446              		.loc 1 302 3 view .LVU122
 447              		.loc 1 302 39 is_stmt 0 view .LVU123
 448 0002 AE23     		movs	r3, #174
 449 0004 0360     		str	r3, [r0]
 303:Drivers/STM32L0xx_HAL_Driver/Src/stm32l0xx_hal_rcc_ex.c ****                                         RCC_PERIPHCLK_I2C1   | RCC_PERIPHCLK_RTC     | \
 304:Drivers/STM32L0xx_HAL_Driver/Src/stm32l0xx_hal_rcc_ex.c ****                                         RCC_PERIPHCLK_LPTIM1;
 305:Drivers/STM32L0xx_HAL_Driver/Src/stm32l0xx_hal_rcc_ex.c **** #if defined(RCC_CCIPR_USART1SEL)
 306:Drivers/STM32L0xx_HAL_Driver/Src/stm32l0xx_hal_rcc_ex.c ****   PeriphClkInit->PeriphClockSelection |= RCC_PERIPHCLK_USART1;
 450              		.loc 1 306 3 is_stmt 1 view .LVU124
 451              		.loc 1 306 39 is_stmt 0 view .LVU125
 452 0006 0133     		adds	r3, r3, #1
 453 0008 0360     		str	r3, [r0]
 307:Drivers/STM32L0xx_HAL_Driver/Src/stm32l0xx_hal_rcc_ex.c **** #endif /* RCC_CCIPR_USART1SEL */
 308:Drivers/STM32L0xx_HAL_Driver/Src/stm32l0xx_hal_rcc_ex.c **** #if  defined(RCC_CCIPR_I2C3SEL)
 309:Drivers/STM32L0xx_HAL_Driver/Src/stm32l0xx_hal_rcc_ex.c ****   PeriphClkInit->PeriphClockSelection |= RCC_PERIPHCLK_I2C3;
 454              		.loc 1 309 3 is_stmt 1 view .LVU126
 455              		.loc 1 309 39 is_stmt 0 view .LVU127
 456 000a B023     		movs	r3, #176
 457 000c FF33     		adds	r3, r3, #255
 458 000e 0360     		str	r3, [r0]
 310:Drivers/STM32L0xx_HAL_Driver/Src/stm32l0xx_hal_rcc_ex.c **** #endif /* RCC_CCIPR_I2C3SEL */
 311:Drivers/STM32L0xx_HAL_Driver/Src/stm32l0xx_hal_rcc_ex.c **** #if defined(USB)
 312:Drivers/STM32L0xx_HAL_Driver/Src/stm32l0xx_hal_rcc_ex.c ****   PeriphClkInit->PeriphClockSelection |= RCC_PERIPHCLK_USB;
 313:Drivers/STM32L0xx_HAL_Driver/Src/stm32l0xx_hal_rcc_ex.c **** #endif /* USB */
ARM GAS  C:\Users\User\AppData\Local\Temp\cc3ubKML.s 			page 15


 314:Drivers/STM32L0xx_HAL_Driver/Src/stm32l0xx_hal_rcc_ex.c **** #if defined(LCD)
 315:Drivers/STM32L0xx_HAL_Driver/Src/stm32l0xx_hal_rcc_ex.c ****   PeriphClkInit->PeriphClockSelection |= RCC_PERIPHCLK_LCD;
 316:Drivers/STM32L0xx_HAL_Driver/Src/stm32l0xx_hal_rcc_ex.c **** #endif /* LCD */
 317:Drivers/STM32L0xx_HAL_Driver/Src/stm32l0xx_hal_rcc_ex.c **** 
 318:Drivers/STM32L0xx_HAL_Driver/Src/stm32l0xx_hal_rcc_ex.c ****   /* Get the RTC/LCD configuration -----------------------------------------------*/
 319:Drivers/STM32L0xx_HAL_Driver/Src/stm32l0xx_hal_rcc_ex.c ****   srcclk = __HAL_RCC_GET_RTC_SOURCE();
 459              		.loc 1 319 3 is_stmt 1 view .LVU128
 460              		.loc 1 319 12 is_stmt 0 view .LVU129
 461 0010 184B     		ldr	r3, .L42
 462 0012 1B6D     		ldr	r3, [r3, #80]
 463              		.loc 1 319 10 view .LVU130
 464 0014 C022     		movs	r2, #192
 465 0016 9202     		lsls	r2, r2, #10
 466 0018 1340     		ands	r3, r2
 467              	.LVL25:
 320:Drivers/STM32L0xx_HAL_Driver/Src/stm32l0xx_hal_rcc_ex.c ****   if (srcclk != RCC_RTCCLKSOURCE_HSE_DIV2)
 468              		.loc 1 320 3 is_stmt 1 view .LVU131
 469              		.loc 1 320 6 is_stmt 0 view .LVU132
 470 001a 9342     		cmp	r3, r2
 471 001c 21D0     		beq	.L40
 321:Drivers/STM32L0xx_HAL_Driver/Src/stm32l0xx_hal_rcc_ex.c ****   {
 322:Drivers/STM32L0xx_HAL_Driver/Src/stm32l0xx_hal_rcc_ex.c ****     /* Source clock is LSE or LSI*/
 323:Drivers/STM32L0xx_HAL_Driver/Src/stm32l0xx_hal_rcc_ex.c ****     PeriphClkInit->RTCClockSelection = srcclk;
 472              		.loc 1 323 5 is_stmt 1 view .LVU133
 473              		.loc 1 323 38 is_stmt 0 view .LVU134
 474 001e 4360     		str	r3, [r0, #4]
 475              	.LVL26:
 476              	.L41:
 324:Drivers/STM32L0xx_HAL_Driver/Src/stm32l0xx_hal_rcc_ex.c ****   }
 325:Drivers/STM32L0xx_HAL_Driver/Src/stm32l0xx_hal_rcc_ex.c ****   else
 326:Drivers/STM32L0xx_HAL_Driver/Src/stm32l0xx_hal_rcc_ex.c ****   {
 327:Drivers/STM32L0xx_HAL_Driver/Src/stm32l0xx_hal_rcc_ex.c ****     /* Source clock is HSE. Need to get the prescaler value*/
 328:Drivers/STM32L0xx_HAL_Driver/Src/stm32l0xx_hal_rcc_ex.c ****     PeriphClkInit->RTCClockSelection = srcclk | (READ_BIT(RCC->CR, RCC_CR_RTCPRE));
 329:Drivers/STM32L0xx_HAL_Driver/Src/stm32l0xx_hal_rcc_ex.c ****   }
 330:Drivers/STM32L0xx_HAL_Driver/Src/stm32l0xx_hal_rcc_ex.c **** #if defined(LCD)
 331:Drivers/STM32L0xx_HAL_Driver/Src/stm32l0xx_hal_rcc_ex.c ****   PeriphClkInit->LCDClockSelection = PeriphClkInit->RTCClockSelection;
 332:Drivers/STM32L0xx_HAL_Driver/Src/stm32l0xx_hal_rcc_ex.c **** #endif /* LCD */
 333:Drivers/STM32L0xx_HAL_Driver/Src/stm32l0xx_hal_rcc_ex.c **** #if defined(RCC_CCIPR_USART1SEL)
 334:Drivers/STM32L0xx_HAL_Driver/Src/stm32l0xx_hal_rcc_ex.c ****   /* Get the USART1 configuration --------------------------------------------*/
 335:Drivers/STM32L0xx_HAL_Driver/Src/stm32l0xx_hal_rcc_ex.c ****   PeriphClkInit->Usart1ClockSelection  = __HAL_RCC_GET_USART1_SOURCE();
 477              		.loc 1 335 3 is_stmt 1 view .LVU135
 478              		.loc 1 335 42 is_stmt 0 view .LVU136
 479 0020 144B     		ldr	r3, .L42
 480 0022 D96C     		ldr	r1, [r3, #76]
 481 0024 0322     		movs	r2, #3
 482 0026 0A40     		ands	r2, r1
 483              		.loc 1 335 40 view .LVU137
 484 0028 8260     		str	r2, [r0, #8]
 336:Drivers/STM32L0xx_HAL_Driver/Src/stm32l0xx_hal_rcc_ex.c **** #endif /* RCC_CCIPR_USART1SEL */
 337:Drivers/STM32L0xx_HAL_Driver/Src/stm32l0xx_hal_rcc_ex.c ****   /* Get the USART2 clock source ---------------------------------------------*/
 338:Drivers/STM32L0xx_HAL_Driver/Src/stm32l0xx_hal_rcc_ex.c ****   PeriphClkInit->Usart2ClockSelection  = __HAL_RCC_GET_USART2_SOURCE();
 485              		.loc 1 338 3 is_stmt 1 view .LVU138
 486              		.loc 1 338 42 is_stmt 0 view .LVU139
 487 002a D96C     		ldr	r1, [r3, #76]
 488 002c 0C22     		movs	r2, #12
 489 002e 0A40     		ands	r2, r1
 490              		.loc 1 338 40 view .LVU140
ARM GAS  C:\Users\User\AppData\Local\Temp\cc3ubKML.s 			page 16


 491 0030 C260     		str	r2, [r0, #12]
 339:Drivers/STM32L0xx_HAL_Driver/Src/stm32l0xx_hal_rcc_ex.c ****   /* Get the LPUART1 clock source ---------------------------------------------*/
 340:Drivers/STM32L0xx_HAL_Driver/Src/stm32l0xx_hal_rcc_ex.c ****   PeriphClkInit->Lpuart1ClockSelection = __HAL_RCC_GET_LPUART1_SOURCE();
 492              		.loc 1 340 3 is_stmt 1 view .LVU141
 493              		.loc 1 340 42 is_stmt 0 view .LVU142
 494 0032 DA6C     		ldr	r2, [r3, #76]
 495 0034 C021     		movs	r1, #192
 496 0036 0901     		lsls	r1, r1, #4
 497 0038 0A40     		ands	r2, r1
 498              		.loc 1 340 40 view .LVU143
 499 003a 0261     		str	r2, [r0, #16]
 341:Drivers/STM32L0xx_HAL_Driver/Src/stm32l0xx_hal_rcc_ex.c ****   /* Get the I2C1 clock source -----------------------------------------------*/
 342:Drivers/STM32L0xx_HAL_Driver/Src/stm32l0xx_hal_rcc_ex.c ****   PeriphClkInit->I2c1ClockSelection    = __HAL_RCC_GET_I2C1_SOURCE();
 500              		.loc 1 342 3 is_stmt 1 view .LVU144
 501              		.loc 1 342 42 is_stmt 0 view .LVU145
 502 003c DA6C     		ldr	r2, [r3, #76]
 503 003e C021     		movs	r1, #192
 504 0040 8901     		lsls	r1, r1, #6
 505 0042 0A40     		ands	r2, r1
 506              		.loc 1 342 40 view .LVU146
 507 0044 4261     		str	r2, [r0, #20]
 343:Drivers/STM32L0xx_HAL_Driver/Src/stm32l0xx_hal_rcc_ex.c **** #if defined(RCC_CCIPR_I2C3SEL)
 344:Drivers/STM32L0xx_HAL_Driver/Src/stm32l0xx_hal_rcc_ex.c **** /* Get the I2C3 clock source -----------------------------------------------*/
 345:Drivers/STM32L0xx_HAL_Driver/Src/stm32l0xx_hal_rcc_ex.c ****   PeriphClkInit->I2c3ClockSelection    = __HAL_RCC_GET_I2C3_SOURCE();
 508              		.loc 1 345 3 is_stmt 1 view .LVU147
 509              		.loc 1 345 42 is_stmt 0 view .LVU148
 510 0046 DA6C     		ldr	r2, [r3, #76]
 511 0048 C021     		movs	r1, #192
 512 004a 8902     		lsls	r1, r1, #10
 513 004c 0A40     		ands	r2, r1
 514              		.loc 1 345 40 view .LVU149
 515 004e 8261     		str	r2, [r0, #24]
 346:Drivers/STM32L0xx_HAL_Driver/Src/stm32l0xx_hal_rcc_ex.c **** #endif /* RCC_CCIPR_I2C3SEL */
 347:Drivers/STM32L0xx_HAL_Driver/Src/stm32l0xx_hal_rcc_ex.c ****   /* Get the LPTIM1 clock source -----------------------------------------------*/
 348:Drivers/STM32L0xx_HAL_Driver/Src/stm32l0xx_hal_rcc_ex.c ****   PeriphClkInit->LptimClockSelection   = __HAL_RCC_GET_LPTIM1_SOURCE();
 516              		.loc 1 348 3 is_stmt 1 view .LVU150
 517              		.loc 1 348 42 is_stmt 0 view .LVU151
 518 0050 DA6C     		ldr	r2, [r3, #76]
 519 0052 C024     		movs	r4, #192
 520 0054 2403     		lsls	r4, r4, #12
 521 0056 2240     		ands	r2, r4
 522              		.loc 1 348 40 view .LVU152
 523 0058 C261     		str	r2, [r0, #28]
 349:Drivers/STM32L0xx_HAL_Driver/Src/stm32l0xx_hal_rcc_ex.c ****   /* Get the RTC clock source -----------------------------------------------*/
 350:Drivers/STM32L0xx_HAL_Driver/Src/stm32l0xx_hal_rcc_ex.c ****   PeriphClkInit->RTCClockSelection     = __HAL_RCC_GET_RTC_SOURCE();
 524              		.loc 1 350 3 is_stmt 1 view .LVU153
 525              		.loc 1 350 42 is_stmt 0 view .LVU154
 526 005a 1B6D     		ldr	r3, [r3, #80]
 527 005c 0B40     		ands	r3, r1
 528              		.loc 1 350 40 view .LVU155
 529 005e 4360     		str	r3, [r0, #4]
 351:Drivers/STM32L0xx_HAL_Driver/Src/stm32l0xx_hal_rcc_ex.c **** #if defined(USB)
 352:Drivers/STM32L0xx_HAL_Driver/Src/stm32l0xx_hal_rcc_ex.c ****   /* Get the USB/RNG clock source -----------------------------------------------*/
 353:Drivers/STM32L0xx_HAL_Driver/Src/stm32l0xx_hal_rcc_ex.c ****   PeriphClkInit->UsbClockSelection     = __HAL_RCC_GET_USB_SOURCE();
 354:Drivers/STM32L0xx_HAL_Driver/Src/stm32l0xx_hal_rcc_ex.c **** #endif /* USB */
 355:Drivers/STM32L0xx_HAL_Driver/Src/stm32l0xx_hal_rcc_ex.c **** }
 530              		.loc 1 355 1 view .LVU156
ARM GAS  C:\Users\User\AppData\Local\Temp\cc3ubKML.s 			page 17


 531              		@ sp needed
 532 0060 10BD     		pop	{r4, pc}
 533              	.LVL27:
 534              	.L40:
 328:Drivers/STM32L0xx_HAL_Driver/Src/stm32l0xx_hal_rcc_ex.c ****   }
 535              		.loc 1 328 5 is_stmt 1 view .LVU157
 328:Drivers/STM32L0xx_HAL_Driver/Src/stm32l0xx_hal_rcc_ex.c ****   }
 536              		.loc 1 328 50 is_stmt 0 view .LVU158
 537 0062 044A     		ldr	r2, .L42
 538 0064 1268     		ldr	r2, [r2]
 539 0066 C021     		movs	r1, #192
 540 0068 8903     		lsls	r1, r1, #14
 541 006a 0A40     		ands	r2, r1
 328:Drivers/STM32L0xx_HAL_Driver/Src/stm32l0xx_hal_rcc_ex.c ****   }
 542              		.loc 1 328 47 view .LVU159
 543 006c 1343     		orrs	r3, r2
 544              	.LVL28:
 328:Drivers/STM32L0xx_HAL_Driver/Src/stm32l0xx_hal_rcc_ex.c ****   }
 545              		.loc 1 328 38 view .LVU160
 546 006e 4360     		str	r3, [r0, #4]
 547 0070 D6E7     		b	.L41
 548              	.L43:
 549 0072 C046     		.align	2
 550              	.L42:
 551 0074 00100240 		.word	1073876992
 552              		.cfi_endproc
 553              	.LFE48:
 555              		.section	.text.HAL_RCCEx_GetPeriphCLKFreq,"ax",%progbits
 556              		.align	1
 557              		.global	HAL_RCCEx_GetPeriphCLKFreq
 558              		.syntax unified
 559              		.code	16
 560              		.thumb_func
 562              	HAL_RCCEx_GetPeriphCLKFreq:
 563              	.LVL29:
 564              	.LFB49:
 356:Drivers/STM32L0xx_HAL_Driver/Src/stm32l0xx_hal_rcc_ex.c **** 
 357:Drivers/STM32L0xx_HAL_Driver/Src/stm32l0xx_hal_rcc_ex.c **** /**
 358:Drivers/STM32L0xx_HAL_Driver/Src/stm32l0xx_hal_rcc_ex.c ****   * @brief  Return the peripheral clock frequency
 359:Drivers/STM32L0xx_HAL_Driver/Src/stm32l0xx_hal_rcc_ex.c ****   * @note   Return 0 if peripheral clock is unknown
 360:Drivers/STM32L0xx_HAL_Driver/Src/stm32l0xx_hal_rcc_ex.c ****   * @param  PeriphClk Peripheral clock identifier
 361:Drivers/STM32L0xx_HAL_Driver/Src/stm32l0xx_hal_rcc_ex.c ****   *         This parameter can be one of the following values:
 362:Drivers/STM32L0xx_HAL_Driver/Src/stm32l0xx_hal_rcc_ex.c ****   *            @arg @ref RCC_PERIPHCLK_RTC      RTC peripheral clock
 363:Drivers/STM32L0xx_HAL_Driver/Src/stm32l0xx_hal_rcc_ex.c ****   *            @arg @ref RCC_PERIPHCLK_LCD      LCD peripheral clock (*)
 364:Drivers/STM32L0xx_HAL_Driver/Src/stm32l0xx_hal_rcc_ex.c ****   *            @arg @ref RCC_PERIPHCLK_USB      USB or RNG peripheral clock (*)
 365:Drivers/STM32L0xx_HAL_Driver/Src/stm32l0xx_hal_rcc_ex.c ****   *            @arg @ref RCC_PERIPHCLK_USART1   USART1 peripheral clock (*)
 366:Drivers/STM32L0xx_HAL_Driver/Src/stm32l0xx_hal_rcc_ex.c ****   *            @arg @ref RCC_PERIPHCLK_USART2   USART2 peripheral clock
 367:Drivers/STM32L0xx_HAL_Driver/Src/stm32l0xx_hal_rcc_ex.c ****   *            @arg @ref RCC_PERIPHCLK_LPUART1  LPUART1 peripheral clock
 368:Drivers/STM32L0xx_HAL_Driver/Src/stm32l0xx_hal_rcc_ex.c ****   *            @arg @ref RCC_PERIPHCLK_I2C1     I2C1 peripheral clock
 369:Drivers/STM32L0xx_HAL_Driver/Src/stm32l0xx_hal_rcc_ex.c ****   *            @arg @ref RCC_PERIPHCLK_I2C2     I2C2 peripheral clock (*)
 370:Drivers/STM32L0xx_HAL_Driver/Src/stm32l0xx_hal_rcc_ex.c ****   *            @arg @ref RCC_PERIPHCLK_I2C3     I2C3 peripheral clock (*)
 371:Drivers/STM32L0xx_HAL_Driver/Src/stm32l0xx_hal_rcc_ex.c ****   * @note   (*) means that this peripheral is not present on all the devices
 372:Drivers/STM32L0xx_HAL_Driver/Src/stm32l0xx_hal_rcc_ex.c ****   * @retval Frequency in Hz (0: means that no available frequency for the peripheral)
 373:Drivers/STM32L0xx_HAL_Driver/Src/stm32l0xx_hal_rcc_ex.c ****   */
 374:Drivers/STM32L0xx_HAL_Driver/Src/stm32l0xx_hal_rcc_ex.c **** uint32_t HAL_RCCEx_GetPeriphCLKFreq(uint32_t PeriphClk)
 375:Drivers/STM32L0xx_HAL_Driver/Src/stm32l0xx_hal_rcc_ex.c **** {
 565              		.loc 1 375 1 is_stmt 1 view -0
ARM GAS  C:\Users\User\AppData\Local\Temp\cc3ubKML.s 			page 18


 566              		.cfi_startproc
 567              		@ args = 0, pretend = 0, frame = 0
 568              		@ frame_needed = 0, uses_anonymous_args = 0
 569              		.loc 1 375 1 is_stmt 0 view .LVU162
 570 0000 10B5     		push	{r4, lr}
 571              	.LCFI2:
 572              		.cfi_def_cfa_offset 8
 573              		.cfi_offset 4, -8
 574              		.cfi_offset 14, -4
 376:Drivers/STM32L0xx_HAL_Driver/Src/stm32l0xx_hal_rcc_ex.c ****   uint32_t frequency = 0U;
 575              		.loc 1 376 3 is_stmt 1 view .LVU163
 576              	.LVL30:
 377:Drivers/STM32L0xx_HAL_Driver/Src/stm32l0xx_hal_rcc_ex.c ****   uint32_t temp_reg, clkprediv, srcclk;    /* no init needed */
 577              		.loc 1 377 3 view .LVU164
 378:Drivers/STM32L0xx_HAL_Driver/Src/stm32l0xx_hal_rcc_ex.c **** #if defined(USB)
 379:Drivers/STM32L0xx_HAL_Driver/Src/stm32l0xx_hal_rcc_ex.c ****   uint32_t pllmul, plldiv, pllvco;    /* no init needed */
 380:Drivers/STM32L0xx_HAL_Driver/Src/stm32l0xx_hal_rcc_ex.c **** #endif /* USB */
 381:Drivers/STM32L0xx_HAL_Driver/Src/stm32l0xx_hal_rcc_ex.c **** 
 382:Drivers/STM32L0xx_HAL_Driver/Src/stm32l0xx_hal_rcc_ex.c ****   /* Check the parameters */
 383:Drivers/STM32L0xx_HAL_Driver/Src/stm32l0xx_hal_rcc_ex.c ****   assert_param(IS_RCC_PERIPHCLOCK(PeriphClk));
 578              		.loc 1 383 3 view .LVU165
 384:Drivers/STM32L0xx_HAL_Driver/Src/stm32l0xx_hal_rcc_ex.c **** 
 385:Drivers/STM32L0xx_HAL_Driver/Src/stm32l0xx_hal_rcc_ex.c ****   switch (PeriphClk)
 579              		.loc 1 385 3 view .LVU166
 580 0002 2028     		cmp	r0, #32
 581 0004 09D8     		bhi	.L45
 582 0006 0028     		cmp	r0, #0
 583 0008 00D1     		bne	.LCB523
 584 000a 38E1     		b	.L70	@long jump
 585              	.LCB523:
 586 000c 2028     		cmp	r0, #32
 587 000e 00D9     		bls	.LCB525
 588 0010 37E1     		b	.L71	@long jump
 589              	.LCB525:
 590 0012 8000     		lsls	r0, r0, #2
 591              	.LVL31:
 592              		.loc 1 385 3 is_stmt 0 view .LVU167
 593 0014 A34B     		ldr	r3, .L114
 594 0016 1B58     		ldr	r3, [r3, r0]
 595 0018 9F46     		mov	pc, r3
 596              		.section	.rodata.HAL_RCCEx_GetPeriphCLKFreq,"a",%progbits
 597              		.align	2
 598              	.L48:
 599 0000 82020000 		.word	.L71
 600 0004 D2000000 		.word	.L53
 601 0008 32010000 		.word	.L52
 602 000c 82020000 		.word	.L71
 603 0010 90010000 		.word	.L51
 604 0014 82020000 		.word	.L71
 605 0018 82020000 		.word	.L71
 606 001c 82020000 		.word	.L71
 607 0020 F8010000 		.word	.L50
 608 0024 82020000 		.word	.L71
 609 0028 82020000 		.word	.L71
 610 002c 82020000 		.word	.L71
 611 0030 82020000 		.word	.L71
 612 0034 82020000 		.word	.L71
ARM GAS  C:\Users\User\AppData\Local\Temp\cc3ubKML.s 			page 19


 613 0038 82020000 		.word	.L71
 614 003c 82020000 		.word	.L71
 615 0040 42020000 		.word	.L49
 616 0044 82020000 		.word	.L71
 617 0048 82020000 		.word	.L71
 618 004c 82020000 		.word	.L71
 619 0050 82020000 		.word	.L71
 620 0054 82020000 		.word	.L71
 621 0058 82020000 		.word	.L71
 622 005c 82020000 		.word	.L71
 623 0060 82020000 		.word	.L71
 624 0064 82020000 		.word	.L71
 625 0068 82020000 		.word	.L71
 626 006c 82020000 		.word	.L71
 627 0070 82020000 		.word	.L71
 628 0074 82020000 		.word	.L71
 629 0078 82020000 		.word	.L71
 630 007c 82020000 		.word	.L71
 631 0080 50000000 		.word	.L47
 632              		.section	.text.HAL_RCCEx_GetPeriphCLKFreq
 633              	.LVL32:
 634              	.L45:
 635              		.loc 1 385 3 view .LVU168
 636 001a 8023     		movs	r3, #128
 637 001c 5B00     		lsls	r3, r3, #1
 638 001e 9842     		cmp	r0, r3
 639 0020 14D1     		bne	.L91
 386:Drivers/STM32L0xx_HAL_Driver/Src/stm32l0xx_hal_rcc_ex.c ****   {
 387:Drivers/STM32L0xx_HAL_Driver/Src/stm32l0xx_hal_rcc_ex.c ****   case RCC_PERIPHCLK_RTC:
 388:Drivers/STM32L0xx_HAL_Driver/Src/stm32l0xx_hal_rcc_ex.c **** #if defined(LCD)
 389:Drivers/STM32L0xx_HAL_Driver/Src/stm32l0xx_hal_rcc_ex.c ****   case RCC_PERIPHCLK_LCD:
 390:Drivers/STM32L0xx_HAL_Driver/Src/stm32l0xx_hal_rcc_ex.c **** #endif /* LCD */
 391:Drivers/STM32L0xx_HAL_Driver/Src/stm32l0xx_hal_rcc_ex.c ****     {
 392:Drivers/STM32L0xx_HAL_Driver/Src/stm32l0xx_hal_rcc_ex.c ****       /* Get RCC CSR configuration ------------------------------------------------------*/
 393:Drivers/STM32L0xx_HAL_Driver/Src/stm32l0xx_hal_rcc_ex.c ****       temp_reg = RCC->CSR;
 394:Drivers/STM32L0xx_HAL_Driver/Src/stm32l0xx_hal_rcc_ex.c **** 
 395:Drivers/STM32L0xx_HAL_Driver/Src/stm32l0xx_hal_rcc_ex.c ****       /* Get the current RTC source */
 396:Drivers/STM32L0xx_HAL_Driver/Src/stm32l0xx_hal_rcc_ex.c ****       srcclk = __HAL_RCC_GET_RTC_SOURCE();
 397:Drivers/STM32L0xx_HAL_Driver/Src/stm32l0xx_hal_rcc_ex.c **** 
 398:Drivers/STM32L0xx_HAL_Driver/Src/stm32l0xx_hal_rcc_ex.c ****       /* Check if LSE is ready if RTC clock selection is LSE */
 399:Drivers/STM32L0xx_HAL_Driver/Src/stm32l0xx_hal_rcc_ex.c ****       if ((srcclk == RCC_RTCCLKSOURCE_LSE) && (HAL_IS_BIT_SET(temp_reg, RCC_CSR_LSERDY)))
 400:Drivers/STM32L0xx_HAL_Driver/Src/stm32l0xx_hal_rcc_ex.c ****       {
 401:Drivers/STM32L0xx_HAL_Driver/Src/stm32l0xx_hal_rcc_ex.c ****         frequency = LSE_VALUE;
 402:Drivers/STM32L0xx_HAL_Driver/Src/stm32l0xx_hal_rcc_ex.c ****       }
 403:Drivers/STM32L0xx_HAL_Driver/Src/stm32l0xx_hal_rcc_ex.c ****       /* Check if LSI is ready if RTC clock selection is LSI */
 404:Drivers/STM32L0xx_HAL_Driver/Src/stm32l0xx_hal_rcc_ex.c ****       else if (srcclk == RCC_RTCCLKSOURCE_LSI)
 405:Drivers/STM32L0xx_HAL_Driver/Src/stm32l0xx_hal_rcc_ex.c ****       {
 406:Drivers/STM32L0xx_HAL_Driver/Src/stm32l0xx_hal_rcc_ex.c ****         if (HAL_IS_BIT_SET(temp_reg, RCC_CSR_LSIRDY))
 407:Drivers/STM32L0xx_HAL_Driver/Src/stm32l0xx_hal_rcc_ex.c ****         {
 408:Drivers/STM32L0xx_HAL_Driver/Src/stm32l0xx_hal_rcc_ex.c ****           frequency = LSI_VALUE;
 409:Drivers/STM32L0xx_HAL_Driver/Src/stm32l0xx_hal_rcc_ex.c ****         }
 410:Drivers/STM32L0xx_HAL_Driver/Src/stm32l0xx_hal_rcc_ex.c ****       }
 411:Drivers/STM32L0xx_HAL_Driver/Src/stm32l0xx_hal_rcc_ex.c ****       /* Check if HSE is ready and if RTC clock selection is HSE */
 412:Drivers/STM32L0xx_HAL_Driver/Src/stm32l0xx_hal_rcc_ex.c ****       else if (srcclk == RCC_RTCCLKSOURCE_HSE_DIVX)
 413:Drivers/STM32L0xx_HAL_Driver/Src/stm32l0xx_hal_rcc_ex.c ****       {
 414:Drivers/STM32L0xx_HAL_Driver/Src/stm32l0xx_hal_rcc_ex.c ****         if (HAL_IS_BIT_SET(RCC->CR, RCC_CR_HSERDY))
 415:Drivers/STM32L0xx_HAL_Driver/Src/stm32l0xx_hal_rcc_ex.c ****         {
ARM GAS  C:\Users\User\AppData\Local\Temp\cc3ubKML.s 			page 20


 416:Drivers/STM32L0xx_HAL_Driver/Src/stm32l0xx_hal_rcc_ex.c ****           /* Get the current HSE clock divider */
 417:Drivers/STM32L0xx_HAL_Driver/Src/stm32l0xx_hal_rcc_ex.c ****           clkprediv = __HAL_RCC_GET_RTC_HSE_PRESCALER();
 418:Drivers/STM32L0xx_HAL_Driver/Src/stm32l0xx_hal_rcc_ex.c **** 
 419:Drivers/STM32L0xx_HAL_Driver/Src/stm32l0xx_hal_rcc_ex.c ****           switch (clkprediv)
 420:Drivers/STM32L0xx_HAL_Driver/Src/stm32l0xx_hal_rcc_ex.c ****           {
 421:Drivers/STM32L0xx_HAL_Driver/Src/stm32l0xx_hal_rcc_ex.c ****             case RCC_RTC_HSE_DIV_16:  /* HSE DIV16 has been selected */
 422:Drivers/STM32L0xx_HAL_Driver/Src/stm32l0xx_hal_rcc_ex.c ****             {
 423:Drivers/STM32L0xx_HAL_Driver/Src/stm32l0xx_hal_rcc_ex.c ****               frequency = HSE_VALUE / 16U;
 424:Drivers/STM32L0xx_HAL_Driver/Src/stm32l0xx_hal_rcc_ex.c ****               break;
 425:Drivers/STM32L0xx_HAL_Driver/Src/stm32l0xx_hal_rcc_ex.c ****             }
 426:Drivers/STM32L0xx_HAL_Driver/Src/stm32l0xx_hal_rcc_ex.c ****             case RCC_RTC_HSE_DIV_8:   /* HSE DIV8 has been selected  */
 427:Drivers/STM32L0xx_HAL_Driver/Src/stm32l0xx_hal_rcc_ex.c ****             {
 428:Drivers/STM32L0xx_HAL_Driver/Src/stm32l0xx_hal_rcc_ex.c ****               frequency = HSE_VALUE / 8U;
 429:Drivers/STM32L0xx_HAL_Driver/Src/stm32l0xx_hal_rcc_ex.c ****               break;
 430:Drivers/STM32L0xx_HAL_Driver/Src/stm32l0xx_hal_rcc_ex.c ****             }
 431:Drivers/STM32L0xx_HAL_Driver/Src/stm32l0xx_hal_rcc_ex.c ****             case RCC_RTC_HSE_DIV_4:   /* HSE DIV4 has been selected  */
 432:Drivers/STM32L0xx_HAL_Driver/Src/stm32l0xx_hal_rcc_ex.c ****             {
 433:Drivers/STM32L0xx_HAL_Driver/Src/stm32l0xx_hal_rcc_ex.c ****               frequency = HSE_VALUE / 4U;
 434:Drivers/STM32L0xx_HAL_Driver/Src/stm32l0xx_hal_rcc_ex.c ****               break;
 435:Drivers/STM32L0xx_HAL_Driver/Src/stm32l0xx_hal_rcc_ex.c ****             }
 436:Drivers/STM32L0xx_HAL_Driver/Src/stm32l0xx_hal_rcc_ex.c ****             default:                  /* HSE DIV2 has been selected  */
 437:Drivers/STM32L0xx_HAL_Driver/Src/stm32l0xx_hal_rcc_ex.c ****             {
 438:Drivers/STM32L0xx_HAL_Driver/Src/stm32l0xx_hal_rcc_ex.c ****               frequency = HSE_VALUE / 2U;
 439:Drivers/STM32L0xx_HAL_Driver/Src/stm32l0xx_hal_rcc_ex.c ****               break;
 440:Drivers/STM32L0xx_HAL_Driver/Src/stm32l0xx_hal_rcc_ex.c ****             }
 441:Drivers/STM32L0xx_HAL_Driver/Src/stm32l0xx_hal_rcc_ex.c ****           }
 442:Drivers/STM32L0xx_HAL_Driver/Src/stm32l0xx_hal_rcc_ex.c ****         }
 443:Drivers/STM32L0xx_HAL_Driver/Src/stm32l0xx_hal_rcc_ex.c ****       }
 444:Drivers/STM32L0xx_HAL_Driver/Src/stm32l0xx_hal_rcc_ex.c ****       /* Clock not enabled for RTC */
 445:Drivers/STM32L0xx_HAL_Driver/Src/stm32l0xx_hal_rcc_ex.c ****       else
 446:Drivers/STM32L0xx_HAL_Driver/Src/stm32l0xx_hal_rcc_ex.c ****       {
 447:Drivers/STM32L0xx_HAL_Driver/Src/stm32l0xx_hal_rcc_ex.c ****         frequency = 0U;
 448:Drivers/STM32L0xx_HAL_Driver/Src/stm32l0xx_hal_rcc_ex.c ****       }
 449:Drivers/STM32L0xx_HAL_Driver/Src/stm32l0xx_hal_rcc_ex.c ****       break;
 450:Drivers/STM32L0xx_HAL_Driver/Src/stm32l0xx_hal_rcc_ex.c ****     }
 451:Drivers/STM32L0xx_HAL_Driver/Src/stm32l0xx_hal_rcc_ex.c **** #if defined(USB)
 452:Drivers/STM32L0xx_HAL_Driver/Src/stm32l0xx_hal_rcc_ex.c ****   case RCC_PERIPHCLK_USB:
 453:Drivers/STM32L0xx_HAL_Driver/Src/stm32l0xx_hal_rcc_ex.c ****     {
 454:Drivers/STM32L0xx_HAL_Driver/Src/stm32l0xx_hal_rcc_ex.c ****       /* Get the current USB source */
 455:Drivers/STM32L0xx_HAL_Driver/Src/stm32l0xx_hal_rcc_ex.c ****       srcclk = __HAL_RCC_GET_USB_SOURCE();
 456:Drivers/STM32L0xx_HAL_Driver/Src/stm32l0xx_hal_rcc_ex.c **** 
 457:Drivers/STM32L0xx_HAL_Driver/Src/stm32l0xx_hal_rcc_ex.c ****       if (srcclk == RCC_USBCLKSOURCE_PLL)
 458:Drivers/STM32L0xx_HAL_Driver/Src/stm32l0xx_hal_rcc_ex.c ****       {
 459:Drivers/STM32L0xx_HAL_Driver/Src/stm32l0xx_hal_rcc_ex.c ****         if (HAL_IS_BIT_SET(RCC->CR, RCC_CR_PLLRDY))
 460:Drivers/STM32L0xx_HAL_Driver/Src/stm32l0xx_hal_rcc_ex.c ****         {
 461:Drivers/STM32L0xx_HAL_Driver/Src/stm32l0xx_hal_rcc_ex.c ****           /* Get PLL clock source and multiplication factor ----------------------*/
 462:Drivers/STM32L0xx_HAL_Driver/Src/stm32l0xx_hal_rcc_ex.c ****           pllmul = RCC->CFGR & RCC_CFGR_PLLMUL;
 463:Drivers/STM32L0xx_HAL_Driver/Src/stm32l0xx_hal_rcc_ex.c ****           plldiv = RCC->CFGR & RCC_CFGR_PLLDIV;
 464:Drivers/STM32L0xx_HAL_Driver/Src/stm32l0xx_hal_rcc_ex.c ****           pllmul = PLLMulTable[(pllmul >> RCC_CFGR_PLLMUL_Pos)];
 465:Drivers/STM32L0xx_HAL_Driver/Src/stm32l0xx_hal_rcc_ex.c ****           plldiv = (plldiv >> RCC_CFGR_PLLDIV_Pos) + 1U;
 466:Drivers/STM32L0xx_HAL_Driver/Src/stm32l0xx_hal_rcc_ex.c **** 
 467:Drivers/STM32L0xx_HAL_Driver/Src/stm32l0xx_hal_rcc_ex.c ****           /* Compute PLL clock input */
 468:Drivers/STM32L0xx_HAL_Driver/Src/stm32l0xx_hal_rcc_ex.c ****           if(__HAL_RCC_GET_PLL_OSCSOURCE() == RCC_PLLSOURCE_HSI)
 469:Drivers/STM32L0xx_HAL_Driver/Src/stm32l0xx_hal_rcc_ex.c ****           {
 470:Drivers/STM32L0xx_HAL_Driver/Src/stm32l0xx_hal_rcc_ex.c ****             if (READ_BIT(RCC->CR, RCC_CR_HSIDIVF) != 0U)
 471:Drivers/STM32L0xx_HAL_Driver/Src/stm32l0xx_hal_rcc_ex.c ****             {
 472:Drivers/STM32L0xx_HAL_Driver/Src/stm32l0xx_hal_rcc_ex.c ****               pllvco =  (HSI_VALUE >> 2U);
ARM GAS  C:\Users\User\AppData\Local\Temp\cc3ubKML.s 			page 21


 473:Drivers/STM32L0xx_HAL_Driver/Src/stm32l0xx_hal_rcc_ex.c ****             }
 474:Drivers/STM32L0xx_HAL_Driver/Src/stm32l0xx_hal_rcc_ex.c ****             else
 475:Drivers/STM32L0xx_HAL_Driver/Src/stm32l0xx_hal_rcc_ex.c ****             {
 476:Drivers/STM32L0xx_HAL_Driver/Src/stm32l0xx_hal_rcc_ex.c ****               pllvco =  HSI_VALUE;
 477:Drivers/STM32L0xx_HAL_Driver/Src/stm32l0xx_hal_rcc_ex.c ****             }
 478:Drivers/STM32L0xx_HAL_Driver/Src/stm32l0xx_hal_rcc_ex.c ****           }
 479:Drivers/STM32L0xx_HAL_Driver/Src/stm32l0xx_hal_rcc_ex.c ****           else /* HSE source */
 480:Drivers/STM32L0xx_HAL_Driver/Src/stm32l0xx_hal_rcc_ex.c ****           {
 481:Drivers/STM32L0xx_HAL_Driver/Src/stm32l0xx_hal_rcc_ex.c ****             pllvco = HSE_VALUE;
 482:Drivers/STM32L0xx_HAL_Driver/Src/stm32l0xx_hal_rcc_ex.c ****           }
 483:Drivers/STM32L0xx_HAL_Driver/Src/stm32l0xx_hal_rcc_ex.c ****           /* pllvco * pllmul / plldiv */
 484:Drivers/STM32L0xx_HAL_Driver/Src/stm32l0xx_hal_rcc_ex.c ****           pllvco = (pllvco * pllmul);
 485:Drivers/STM32L0xx_HAL_Driver/Src/stm32l0xx_hal_rcc_ex.c ****           frequency = (pllvco/ plldiv);
 486:Drivers/STM32L0xx_HAL_Driver/Src/stm32l0xx_hal_rcc_ex.c ****         }
 487:Drivers/STM32L0xx_HAL_Driver/Src/stm32l0xx_hal_rcc_ex.c ****       }
 488:Drivers/STM32L0xx_HAL_Driver/Src/stm32l0xx_hal_rcc_ex.c ****       else if (srcclk == RCC_USBCLKSOURCE_HSI48)
 489:Drivers/STM32L0xx_HAL_Driver/Src/stm32l0xx_hal_rcc_ex.c ****       {
 490:Drivers/STM32L0xx_HAL_Driver/Src/stm32l0xx_hal_rcc_ex.c ****         if (HAL_IS_BIT_SET(RCC->CRRCR, RCC_CRRCR_HSI48RDY))
 491:Drivers/STM32L0xx_HAL_Driver/Src/stm32l0xx_hal_rcc_ex.c ****         {
 492:Drivers/STM32L0xx_HAL_Driver/Src/stm32l0xx_hal_rcc_ex.c ****           frequency = HSI48_VALUE;
 493:Drivers/STM32L0xx_HAL_Driver/Src/stm32l0xx_hal_rcc_ex.c ****         }
 494:Drivers/STM32L0xx_HAL_Driver/Src/stm32l0xx_hal_rcc_ex.c ****       }
 495:Drivers/STM32L0xx_HAL_Driver/Src/stm32l0xx_hal_rcc_ex.c ****       else /* RCC_USBCLKSOURCE_NONE */
 496:Drivers/STM32L0xx_HAL_Driver/Src/stm32l0xx_hal_rcc_ex.c ****       {
 497:Drivers/STM32L0xx_HAL_Driver/Src/stm32l0xx_hal_rcc_ex.c ****           frequency = 0U;
 498:Drivers/STM32L0xx_HAL_Driver/Src/stm32l0xx_hal_rcc_ex.c ****       }
 499:Drivers/STM32L0xx_HAL_Driver/Src/stm32l0xx_hal_rcc_ex.c ****       break;
 500:Drivers/STM32L0xx_HAL_Driver/Src/stm32l0xx_hal_rcc_ex.c ****     }
 501:Drivers/STM32L0xx_HAL_Driver/Src/stm32l0xx_hal_rcc_ex.c **** #endif /* USB */
 502:Drivers/STM32L0xx_HAL_Driver/Src/stm32l0xx_hal_rcc_ex.c **** #if defined(RCC_CCIPR_USART1SEL)
 503:Drivers/STM32L0xx_HAL_Driver/Src/stm32l0xx_hal_rcc_ex.c ****   case RCC_PERIPHCLK_USART1:
 504:Drivers/STM32L0xx_HAL_Driver/Src/stm32l0xx_hal_rcc_ex.c ****     {
 505:Drivers/STM32L0xx_HAL_Driver/Src/stm32l0xx_hal_rcc_ex.c ****       /* Get the current USART1 source */
 506:Drivers/STM32L0xx_HAL_Driver/Src/stm32l0xx_hal_rcc_ex.c ****       srcclk = __HAL_RCC_GET_USART1_SOURCE();
 507:Drivers/STM32L0xx_HAL_Driver/Src/stm32l0xx_hal_rcc_ex.c **** 
 508:Drivers/STM32L0xx_HAL_Driver/Src/stm32l0xx_hal_rcc_ex.c ****       /* Check if USART1 clock selection is PCLK2 */
 509:Drivers/STM32L0xx_HAL_Driver/Src/stm32l0xx_hal_rcc_ex.c ****       if (srcclk == RCC_USART1CLKSOURCE_PCLK2)
 510:Drivers/STM32L0xx_HAL_Driver/Src/stm32l0xx_hal_rcc_ex.c ****       {
 511:Drivers/STM32L0xx_HAL_Driver/Src/stm32l0xx_hal_rcc_ex.c ****         frequency = HAL_RCC_GetPCLK2Freq();
 512:Drivers/STM32L0xx_HAL_Driver/Src/stm32l0xx_hal_rcc_ex.c ****       }
 513:Drivers/STM32L0xx_HAL_Driver/Src/stm32l0xx_hal_rcc_ex.c ****       /* Check if HSI is ready and if USART1 clock selection is HSI */
 514:Drivers/STM32L0xx_HAL_Driver/Src/stm32l0xx_hal_rcc_ex.c ****       else if (srcclk == RCC_USART1CLKSOURCE_HSI)
 515:Drivers/STM32L0xx_HAL_Driver/Src/stm32l0xx_hal_rcc_ex.c ****       {
 516:Drivers/STM32L0xx_HAL_Driver/Src/stm32l0xx_hal_rcc_ex.c ****         if (HAL_IS_BIT_SET(RCC->CR, RCC_CR_HSIRDY))
 517:Drivers/STM32L0xx_HAL_Driver/Src/stm32l0xx_hal_rcc_ex.c ****         {
 518:Drivers/STM32L0xx_HAL_Driver/Src/stm32l0xx_hal_rcc_ex.c ****           if (READ_BIT(RCC->CR, RCC_CR_HSIDIVF) != 0U)
 519:Drivers/STM32L0xx_HAL_Driver/Src/stm32l0xx_hal_rcc_ex.c ****           {
 520:Drivers/STM32L0xx_HAL_Driver/Src/stm32l0xx_hal_rcc_ex.c ****             frequency =  (HSI_VALUE >> 2U);
 521:Drivers/STM32L0xx_HAL_Driver/Src/stm32l0xx_hal_rcc_ex.c ****           }
 522:Drivers/STM32L0xx_HAL_Driver/Src/stm32l0xx_hal_rcc_ex.c ****           else
 523:Drivers/STM32L0xx_HAL_Driver/Src/stm32l0xx_hal_rcc_ex.c ****           {
 524:Drivers/STM32L0xx_HAL_Driver/Src/stm32l0xx_hal_rcc_ex.c ****             frequency =  HSI_VALUE;
 525:Drivers/STM32L0xx_HAL_Driver/Src/stm32l0xx_hal_rcc_ex.c ****           }
 526:Drivers/STM32L0xx_HAL_Driver/Src/stm32l0xx_hal_rcc_ex.c ****         }
 527:Drivers/STM32L0xx_HAL_Driver/Src/stm32l0xx_hal_rcc_ex.c ****       }
 528:Drivers/STM32L0xx_HAL_Driver/Src/stm32l0xx_hal_rcc_ex.c ****       /* Check if USART1 clock selection is SYSCLK */
 529:Drivers/STM32L0xx_HAL_Driver/Src/stm32l0xx_hal_rcc_ex.c ****       else if (srcclk == RCC_USART1CLKSOURCE_SYSCLK)
ARM GAS  C:\Users\User\AppData\Local\Temp\cc3ubKML.s 			page 22


 530:Drivers/STM32L0xx_HAL_Driver/Src/stm32l0xx_hal_rcc_ex.c ****       {
 531:Drivers/STM32L0xx_HAL_Driver/Src/stm32l0xx_hal_rcc_ex.c ****         frequency = HAL_RCC_GetSysClockFreq();
 532:Drivers/STM32L0xx_HAL_Driver/Src/stm32l0xx_hal_rcc_ex.c ****       }
 533:Drivers/STM32L0xx_HAL_Driver/Src/stm32l0xx_hal_rcc_ex.c ****       /* Check if LSE is ready  and if USART1 clock selection is LSE */
 534:Drivers/STM32L0xx_HAL_Driver/Src/stm32l0xx_hal_rcc_ex.c ****       else if (srcclk == RCC_USART1CLKSOURCE_LSE)
 535:Drivers/STM32L0xx_HAL_Driver/Src/stm32l0xx_hal_rcc_ex.c ****       {
 536:Drivers/STM32L0xx_HAL_Driver/Src/stm32l0xx_hal_rcc_ex.c ****         if (HAL_IS_BIT_SET(RCC->CSR, RCC_CSR_LSERDY))
 537:Drivers/STM32L0xx_HAL_Driver/Src/stm32l0xx_hal_rcc_ex.c ****         {
 538:Drivers/STM32L0xx_HAL_Driver/Src/stm32l0xx_hal_rcc_ex.c ****           frequency = LSE_VALUE;
 539:Drivers/STM32L0xx_HAL_Driver/Src/stm32l0xx_hal_rcc_ex.c ****         }
 540:Drivers/STM32L0xx_HAL_Driver/Src/stm32l0xx_hal_rcc_ex.c ****       }
 541:Drivers/STM32L0xx_HAL_Driver/Src/stm32l0xx_hal_rcc_ex.c ****       /* Clock not enabled for USART1*/
 542:Drivers/STM32L0xx_HAL_Driver/Src/stm32l0xx_hal_rcc_ex.c ****       else
 543:Drivers/STM32L0xx_HAL_Driver/Src/stm32l0xx_hal_rcc_ex.c ****       {
 544:Drivers/STM32L0xx_HAL_Driver/Src/stm32l0xx_hal_rcc_ex.c ****         frequency = 0U;
 545:Drivers/STM32L0xx_HAL_Driver/Src/stm32l0xx_hal_rcc_ex.c ****       }
 546:Drivers/STM32L0xx_HAL_Driver/Src/stm32l0xx_hal_rcc_ex.c ****       break;
 547:Drivers/STM32L0xx_HAL_Driver/Src/stm32l0xx_hal_rcc_ex.c ****     }
 548:Drivers/STM32L0xx_HAL_Driver/Src/stm32l0xx_hal_rcc_ex.c **** #endif /* RCC_CCIPR_USART1SEL */
 549:Drivers/STM32L0xx_HAL_Driver/Src/stm32l0xx_hal_rcc_ex.c ****   case RCC_PERIPHCLK_USART2:
 550:Drivers/STM32L0xx_HAL_Driver/Src/stm32l0xx_hal_rcc_ex.c ****     {
 551:Drivers/STM32L0xx_HAL_Driver/Src/stm32l0xx_hal_rcc_ex.c ****       /* Get the current USART2 source */
 552:Drivers/STM32L0xx_HAL_Driver/Src/stm32l0xx_hal_rcc_ex.c ****       srcclk = __HAL_RCC_GET_USART2_SOURCE();
 553:Drivers/STM32L0xx_HAL_Driver/Src/stm32l0xx_hal_rcc_ex.c **** 
 554:Drivers/STM32L0xx_HAL_Driver/Src/stm32l0xx_hal_rcc_ex.c ****       /* Check if USART2 clock selection is PCLK1 */
 555:Drivers/STM32L0xx_HAL_Driver/Src/stm32l0xx_hal_rcc_ex.c ****       if (srcclk == RCC_USART2CLKSOURCE_PCLK1)
 556:Drivers/STM32L0xx_HAL_Driver/Src/stm32l0xx_hal_rcc_ex.c ****       {
 557:Drivers/STM32L0xx_HAL_Driver/Src/stm32l0xx_hal_rcc_ex.c ****         frequency = HAL_RCC_GetPCLK1Freq();
 558:Drivers/STM32L0xx_HAL_Driver/Src/stm32l0xx_hal_rcc_ex.c ****       }
 559:Drivers/STM32L0xx_HAL_Driver/Src/stm32l0xx_hal_rcc_ex.c ****       /* Check if HSI is ready and if USART2 clock selection is HSI */
 560:Drivers/STM32L0xx_HAL_Driver/Src/stm32l0xx_hal_rcc_ex.c ****       else if (srcclk == RCC_USART2CLKSOURCE_HSI)
 561:Drivers/STM32L0xx_HAL_Driver/Src/stm32l0xx_hal_rcc_ex.c ****       {
 562:Drivers/STM32L0xx_HAL_Driver/Src/stm32l0xx_hal_rcc_ex.c ****         if (HAL_IS_BIT_SET(RCC->CR, RCC_CR_HSIRDY))
 563:Drivers/STM32L0xx_HAL_Driver/Src/stm32l0xx_hal_rcc_ex.c ****         {
 564:Drivers/STM32L0xx_HAL_Driver/Src/stm32l0xx_hal_rcc_ex.c ****           if (READ_BIT(RCC->CR, RCC_CR_HSIDIVF) != 0U)
 565:Drivers/STM32L0xx_HAL_Driver/Src/stm32l0xx_hal_rcc_ex.c ****           {
 566:Drivers/STM32L0xx_HAL_Driver/Src/stm32l0xx_hal_rcc_ex.c ****             frequency =  (HSI_VALUE >> 2U);
 567:Drivers/STM32L0xx_HAL_Driver/Src/stm32l0xx_hal_rcc_ex.c ****           }
 568:Drivers/STM32L0xx_HAL_Driver/Src/stm32l0xx_hal_rcc_ex.c ****           else
 569:Drivers/STM32L0xx_HAL_Driver/Src/stm32l0xx_hal_rcc_ex.c ****           {
 570:Drivers/STM32L0xx_HAL_Driver/Src/stm32l0xx_hal_rcc_ex.c ****             frequency =  HSI_VALUE;
 571:Drivers/STM32L0xx_HAL_Driver/Src/stm32l0xx_hal_rcc_ex.c ****           }
 572:Drivers/STM32L0xx_HAL_Driver/Src/stm32l0xx_hal_rcc_ex.c ****         }
 573:Drivers/STM32L0xx_HAL_Driver/Src/stm32l0xx_hal_rcc_ex.c ****       }
 574:Drivers/STM32L0xx_HAL_Driver/Src/stm32l0xx_hal_rcc_ex.c ****       /* Check if USART2 clock selection is SYSCLK */
 575:Drivers/STM32L0xx_HAL_Driver/Src/stm32l0xx_hal_rcc_ex.c ****       else if (srcclk == RCC_USART2CLKSOURCE_SYSCLK)
 576:Drivers/STM32L0xx_HAL_Driver/Src/stm32l0xx_hal_rcc_ex.c ****       {
 577:Drivers/STM32L0xx_HAL_Driver/Src/stm32l0xx_hal_rcc_ex.c ****         frequency = HAL_RCC_GetSysClockFreq();
 578:Drivers/STM32L0xx_HAL_Driver/Src/stm32l0xx_hal_rcc_ex.c ****       }
 579:Drivers/STM32L0xx_HAL_Driver/Src/stm32l0xx_hal_rcc_ex.c ****       /* Check if LSE is ready  and if USART2 clock selection is LSE */
 580:Drivers/STM32L0xx_HAL_Driver/Src/stm32l0xx_hal_rcc_ex.c ****       else if (srcclk == RCC_USART2CLKSOURCE_LSE)
 581:Drivers/STM32L0xx_HAL_Driver/Src/stm32l0xx_hal_rcc_ex.c ****       {
 582:Drivers/STM32L0xx_HAL_Driver/Src/stm32l0xx_hal_rcc_ex.c ****         if (HAL_IS_BIT_SET(RCC->CSR, RCC_CSR_LSERDY))
 583:Drivers/STM32L0xx_HAL_Driver/Src/stm32l0xx_hal_rcc_ex.c ****         {
 584:Drivers/STM32L0xx_HAL_Driver/Src/stm32l0xx_hal_rcc_ex.c ****           frequency = LSE_VALUE;
 585:Drivers/STM32L0xx_HAL_Driver/Src/stm32l0xx_hal_rcc_ex.c ****         }
 586:Drivers/STM32L0xx_HAL_Driver/Src/stm32l0xx_hal_rcc_ex.c ****       }
ARM GAS  C:\Users\User\AppData\Local\Temp\cc3ubKML.s 			page 23


 587:Drivers/STM32L0xx_HAL_Driver/Src/stm32l0xx_hal_rcc_ex.c ****       /* Clock not enabled for USART2*/
 588:Drivers/STM32L0xx_HAL_Driver/Src/stm32l0xx_hal_rcc_ex.c ****       else
 589:Drivers/STM32L0xx_HAL_Driver/Src/stm32l0xx_hal_rcc_ex.c ****       {
 590:Drivers/STM32L0xx_HAL_Driver/Src/stm32l0xx_hal_rcc_ex.c ****         frequency = 0U;
 591:Drivers/STM32L0xx_HAL_Driver/Src/stm32l0xx_hal_rcc_ex.c ****       }
 592:Drivers/STM32L0xx_HAL_Driver/Src/stm32l0xx_hal_rcc_ex.c ****       break;
 593:Drivers/STM32L0xx_HAL_Driver/Src/stm32l0xx_hal_rcc_ex.c ****     }
 594:Drivers/STM32L0xx_HAL_Driver/Src/stm32l0xx_hal_rcc_ex.c ****   case RCC_PERIPHCLK_LPUART1:
 595:Drivers/STM32L0xx_HAL_Driver/Src/stm32l0xx_hal_rcc_ex.c ****     {
 596:Drivers/STM32L0xx_HAL_Driver/Src/stm32l0xx_hal_rcc_ex.c ****       /* Get the current LPUART1 source */
 597:Drivers/STM32L0xx_HAL_Driver/Src/stm32l0xx_hal_rcc_ex.c ****       srcclk = __HAL_RCC_GET_LPUART1_SOURCE();
 598:Drivers/STM32L0xx_HAL_Driver/Src/stm32l0xx_hal_rcc_ex.c **** 
 599:Drivers/STM32L0xx_HAL_Driver/Src/stm32l0xx_hal_rcc_ex.c ****       /* Check if LPUART1 clock selection is PCLK1 */
 600:Drivers/STM32L0xx_HAL_Driver/Src/stm32l0xx_hal_rcc_ex.c ****       if (srcclk == RCC_LPUART1CLKSOURCE_PCLK1)
 601:Drivers/STM32L0xx_HAL_Driver/Src/stm32l0xx_hal_rcc_ex.c ****       {
 602:Drivers/STM32L0xx_HAL_Driver/Src/stm32l0xx_hal_rcc_ex.c ****         frequency = HAL_RCC_GetPCLK1Freq();
 603:Drivers/STM32L0xx_HAL_Driver/Src/stm32l0xx_hal_rcc_ex.c ****       }
 604:Drivers/STM32L0xx_HAL_Driver/Src/stm32l0xx_hal_rcc_ex.c ****       /* Check if HSI is ready and if LPUART1 clock selection is HSI */
 605:Drivers/STM32L0xx_HAL_Driver/Src/stm32l0xx_hal_rcc_ex.c ****       else if (srcclk == RCC_LPUART1CLKSOURCE_HSI)
 606:Drivers/STM32L0xx_HAL_Driver/Src/stm32l0xx_hal_rcc_ex.c ****       {
 607:Drivers/STM32L0xx_HAL_Driver/Src/stm32l0xx_hal_rcc_ex.c ****         if (HAL_IS_BIT_SET(RCC->CR, RCC_CR_HSIRDY))
 608:Drivers/STM32L0xx_HAL_Driver/Src/stm32l0xx_hal_rcc_ex.c ****         {
 609:Drivers/STM32L0xx_HAL_Driver/Src/stm32l0xx_hal_rcc_ex.c ****           if (READ_BIT(RCC->CR, RCC_CR_HSIDIVF) != 0U)
 610:Drivers/STM32L0xx_HAL_Driver/Src/stm32l0xx_hal_rcc_ex.c ****           {
 611:Drivers/STM32L0xx_HAL_Driver/Src/stm32l0xx_hal_rcc_ex.c ****             frequency =  (HSI_VALUE >> 2U);
 612:Drivers/STM32L0xx_HAL_Driver/Src/stm32l0xx_hal_rcc_ex.c ****           }
 613:Drivers/STM32L0xx_HAL_Driver/Src/stm32l0xx_hal_rcc_ex.c ****           else
 614:Drivers/STM32L0xx_HAL_Driver/Src/stm32l0xx_hal_rcc_ex.c ****           {
 615:Drivers/STM32L0xx_HAL_Driver/Src/stm32l0xx_hal_rcc_ex.c ****             frequency =  HSI_VALUE;
 616:Drivers/STM32L0xx_HAL_Driver/Src/stm32l0xx_hal_rcc_ex.c ****           }
 617:Drivers/STM32L0xx_HAL_Driver/Src/stm32l0xx_hal_rcc_ex.c ****         }
 618:Drivers/STM32L0xx_HAL_Driver/Src/stm32l0xx_hal_rcc_ex.c ****       }
 619:Drivers/STM32L0xx_HAL_Driver/Src/stm32l0xx_hal_rcc_ex.c ****       /* Check if LPUART1 clock selection is SYSCLK */
 620:Drivers/STM32L0xx_HAL_Driver/Src/stm32l0xx_hal_rcc_ex.c ****       else if (srcclk == RCC_LPUART1CLKSOURCE_SYSCLK)
 621:Drivers/STM32L0xx_HAL_Driver/Src/stm32l0xx_hal_rcc_ex.c ****       {
 622:Drivers/STM32L0xx_HAL_Driver/Src/stm32l0xx_hal_rcc_ex.c ****         frequency = HAL_RCC_GetSysClockFreq();
 623:Drivers/STM32L0xx_HAL_Driver/Src/stm32l0xx_hal_rcc_ex.c ****       }
 624:Drivers/STM32L0xx_HAL_Driver/Src/stm32l0xx_hal_rcc_ex.c ****       /* Check if LSE is ready  and if LPUART1 clock selection is LSE */
 625:Drivers/STM32L0xx_HAL_Driver/Src/stm32l0xx_hal_rcc_ex.c ****       else if (srcclk == RCC_LPUART1CLKSOURCE_LSE)
 626:Drivers/STM32L0xx_HAL_Driver/Src/stm32l0xx_hal_rcc_ex.c ****       {
 627:Drivers/STM32L0xx_HAL_Driver/Src/stm32l0xx_hal_rcc_ex.c ****         if (HAL_IS_BIT_SET(RCC->CSR, RCC_CSR_LSERDY))
 628:Drivers/STM32L0xx_HAL_Driver/Src/stm32l0xx_hal_rcc_ex.c ****         {
 629:Drivers/STM32L0xx_HAL_Driver/Src/stm32l0xx_hal_rcc_ex.c ****           frequency = LSE_VALUE;
 630:Drivers/STM32L0xx_HAL_Driver/Src/stm32l0xx_hal_rcc_ex.c ****         }
 631:Drivers/STM32L0xx_HAL_Driver/Src/stm32l0xx_hal_rcc_ex.c ****       }
 632:Drivers/STM32L0xx_HAL_Driver/Src/stm32l0xx_hal_rcc_ex.c ****       /* Clock not enabled for LPUART1*/
 633:Drivers/STM32L0xx_HAL_Driver/Src/stm32l0xx_hal_rcc_ex.c ****       else
 634:Drivers/STM32L0xx_HAL_Driver/Src/stm32l0xx_hal_rcc_ex.c ****       {
 635:Drivers/STM32L0xx_HAL_Driver/Src/stm32l0xx_hal_rcc_ex.c ****         frequency = 0U;
 636:Drivers/STM32L0xx_HAL_Driver/Src/stm32l0xx_hal_rcc_ex.c ****       }
 637:Drivers/STM32L0xx_HAL_Driver/Src/stm32l0xx_hal_rcc_ex.c ****       break;
 638:Drivers/STM32L0xx_HAL_Driver/Src/stm32l0xx_hal_rcc_ex.c ****     }
 639:Drivers/STM32L0xx_HAL_Driver/Src/stm32l0xx_hal_rcc_ex.c ****   case RCC_PERIPHCLK_I2C1:
 640:Drivers/STM32L0xx_HAL_Driver/Src/stm32l0xx_hal_rcc_ex.c ****     {
 641:Drivers/STM32L0xx_HAL_Driver/Src/stm32l0xx_hal_rcc_ex.c ****       /* Get the current I2C1 source */
 642:Drivers/STM32L0xx_HAL_Driver/Src/stm32l0xx_hal_rcc_ex.c ****       srcclk = __HAL_RCC_GET_I2C1_SOURCE();
 643:Drivers/STM32L0xx_HAL_Driver/Src/stm32l0xx_hal_rcc_ex.c **** 
ARM GAS  C:\Users\User\AppData\Local\Temp\cc3ubKML.s 			page 24


 644:Drivers/STM32L0xx_HAL_Driver/Src/stm32l0xx_hal_rcc_ex.c ****       /* Check if I2C1 clock selection is PCLK1 */
 645:Drivers/STM32L0xx_HAL_Driver/Src/stm32l0xx_hal_rcc_ex.c ****       if (srcclk == RCC_I2C1CLKSOURCE_PCLK1)
 646:Drivers/STM32L0xx_HAL_Driver/Src/stm32l0xx_hal_rcc_ex.c ****       {
 647:Drivers/STM32L0xx_HAL_Driver/Src/stm32l0xx_hal_rcc_ex.c ****         frequency = HAL_RCC_GetPCLK1Freq();
 648:Drivers/STM32L0xx_HAL_Driver/Src/stm32l0xx_hal_rcc_ex.c ****       }
 649:Drivers/STM32L0xx_HAL_Driver/Src/stm32l0xx_hal_rcc_ex.c ****       /* Check if HSI is ready and if I2C1 clock selection is HSI */
 650:Drivers/STM32L0xx_HAL_Driver/Src/stm32l0xx_hal_rcc_ex.c ****       else if (srcclk == RCC_I2C1CLKSOURCE_HSI)
 651:Drivers/STM32L0xx_HAL_Driver/Src/stm32l0xx_hal_rcc_ex.c ****       {
 652:Drivers/STM32L0xx_HAL_Driver/Src/stm32l0xx_hal_rcc_ex.c ****         if (HAL_IS_BIT_SET(RCC->CR, RCC_CR_HSIRDY))
 653:Drivers/STM32L0xx_HAL_Driver/Src/stm32l0xx_hal_rcc_ex.c ****         {
 654:Drivers/STM32L0xx_HAL_Driver/Src/stm32l0xx_hal_rcc_ex.c ****           if (READ_BIT(RCC->CR, RCC_CR_HSIDIVF) != 0U)
 655:Drivers/STM32L0xx_HAL_Driver/Src/stm32l0xx_hal_rcc_ex.c ****           {
 656:Drivers/STM32L0xx_HAL_Driver/Src/stm32l0xx_hal_rcc_ex.c ****             frequency =  (HSI_VALUE >> 2U);
 657:Drivers/STM32L0xx_HAL_Driver/Src/stm32l0xx_hal_rcc_ex.c ****           }
 658:Drivers/STM32L0xx_HAL_Driver/Src/stm32l0xx_hal_rcc_ex.c ****           else
 659:Drivers/STM32L0xx_HAL_Driver/Src/stm32l0xx_hal_rcc_ex.c ****           {
 660:Drivers/STM32L0xx_HAL_Driver/Src/stm32l0xx_hal_rcc_ex.c ****             frequency =  HSI_VALUE;
 661:Drivers/STM32L0xx_HAL_Driver/Src/stm32l0xx_hal_rcc_ex.c ****           }
 662:Drivers/STM32L0xx_HAL_Driver/Src/stm32l0xx_hal_rcc_ex.c ****         }
 663:Drivers/STM32L0xx_HAL_Driver/Src/stm32l0xx_hal_rcc_ex.c ****       }
 664:Drivers/STM32L0xx_HAL_Driver/Src/stm32l0xx_hal_rcc_ex.c ****       /* Check if I2C1 clock selection is SYSCLK */
 665:Drivers/STM32L0xx_HAL_Driver/Src/stm32l0xx_hal_rcc_ex.c ****       else if (srcclk == RCC_I2C1CLKSOURCE_SYSCLK)
 666:Drivers/STM32L0xx_HAL_Driver/Src/stm32l0xx_hal_rcc_ex.c ****       {
 667:Drivers/STM32L0xx_HAL_Driver/Src/stm32l0xx_hal_rcc_ex.c ****         frequency = HAL_RCC_GetSysClockFreq();
 668:Drivers/STM32L0xx_HAL_Driver/Src/stm32l0xx_hal_rcc_ex.c ****       }
 669:Drivers/STM32L0xx_HAL_Driver/Src/stm32l0xx_hal_rcc_ex.c ****       /* Clock not enabled for I2C1*/
 670:Drivers/STM32L0xx_HAL_Driver/Src/stm32l0xx_hal_rcc_ex.c ****       else
 671:Drivers/STM32L0xx_HAL_Driver/Src/stm32l0xx_hal_rcc_ex.c ****       {
 672:Drivers/STM32L0xx_HAL_Driver/Src/stm32l0xx_hal_rcc_ex.c ****         frequency = 0U;
 673:Drivers/STM32L0xx_HAL_Driver/Src/stm32l0xx_hal_rcc_ex.c ****       }
 674:Drivers/STM32L0xx_HAL_Driver/Src/stm32l0xx_hal_rcc_ex.c ****       break;
 675:Drivers/STM32L0xx_HAL_Driver/Src/stm32l0xx_hal_rcc_ex.c ****     }
 676:Drivers/STM32L0xx_HAL_Driver/Src/stm32l0xx_hal_rcc_ex.c **** #if defined(I2C2)
 677:Drivers/STM32L0xx_HAL_Driver/Src/stm32l0xx_hal_rcc_ex.c ****   case RCC_PERIPHCLK_I2C2:
 678:Drivers/STM32L0xx_HAL_Driver/Src/stm32l0xx_hal_rcc_ex.c ****     {
 679:Drivers/STM32L0xx_HAL_Driver/Src/stm32l0xx_hal_rcc_ex.c **** 
 680:Drivers/STM32L0xx_HAL_Driver/Src/stm32l0xx_hal_rcc_ex.c ****       /* Check if I2C2 on APB1 clock enabled*/
 681:Drivers/STM32L0xx_HAL_Driver/Src/stm32l0xx_hal_rcc_ex.c ****       if (READ_BIT(RCC->APB1ENR, (RCC_APB1ENR_I2C2EN))==RCC_APB1ENR_I2C2EN)
 682:Drivers/STM32L0xx_HAL_Driver/Src/stm32l0xx_hal_rcc_ex.c ****       {
 683:Drivers/STM32L0xx_HAL_Driver/Src/stm32l0xx_hal_rcc_ex.c ****         frequency = HAL_RCC_GetPCLK1Freq();
 684:Drivers/STM32L0xx_HAL_Driver/Src/stm32l0xx_hal_rcc_ex.c ****       }
 685:Drivers/STM32L0xx_HAL_Driver/Src/stm32l0xx_hal_rcc_ex.c ****       else
 686:Drivers/STM32L0xx_HAL_Driver/Src/stm32l0xx_hal_rcc_ex.c ****       {
 687:Drivers/STM32L0xx_HAL_Driver/Src/stm32l0xx_hal_rcc_ex.c ****         frequency = 0U;
 688:Drivers/STM32L0xx_HAL_Driver/Src/stm32l0xx_hal_rcc_ex.c ****       }
 689:Drivers/STM32L0xx_HAL_Driver/Src/stm32l0xx_hal_rcc_ex.c ****       break;
 690:Drivers/STM32L0xx_HAL_Driver/Src/stm32l0xx_hal_rcc_ex.c ****     }
 691:Drivers/STM32L0xx_HAL_Driver/Src/stm32l0xx_hal_rcc_ex.c **** #endif /* I2C2 */
 692:Drivers/STM32L0xx_HAL_Driver/Src/stm32l0xx_hal_rcc_ex.c **** 
 693:Drivers/STM32L0xx_HAL_Driver/Src/stm32l0xx_hal_rcc_ex.c **** #if defined(RCC_CCIPR_I2C3SEL)
 694:Drivers/STM32L0xx_HAL_Driver/Src/stm32l0xx_hal_rcc_ex.c ****   case RCC_PERIPHCLK_I2C3:
 695:Drivers/STM32L0xx_HAL_Driver/Src/stm32l0xx_hal_rcc_ex.c ****     {
 696:Drivers/STM32L0xx_HAL_Driver/Src/stm32l0xx_hal_rcc_ex.c ****       /* Get the current I2C3 source */
 697:Drivers/STM32L0xx_HAL_Driver/Src/stm32l0xx_hal_rcc_ex.c ****       srcclk = __HAL_RCC_GET_I2C3_SOURCE();
 640              		.loc 1 697 7 is_stmt 1 view .LVU169
 641              		.loc 1 697 16 is_stmt 0 view .LVU170
 642 0022 A14B     		ldr	r3, .L114+4
ARM GAS  C:\Users\User\AppData\Local\Temp\cc3ubKML.s 			page 25


 643 0024 DA6C     		ldr	r2, [r3, #76]
 644              		.loc 1 697 14 view .LVU171
 645 0026 C023     		movs	r3, #192
 646 0028 9B02     		lsls	r3, r3, #10
 647 002a 1100     		movs	r1, r2
 648 002c 1940     		ands	r1, r3
 649              	.LVL33:
 698:Drivers/STM32L0xx_HAL_Driver/Src/stm32l0xx_hal_rcc_ex.c **** 
 699:Drivers/STM32L0xx_HAL_Driver/Src/stm32l0xx_hal_rcc_ex.c ****       /* Check if I2C3 clock selection is PCLK1 */
 700:Drivers/STM32L0xx_HAL_Driver/Src/stm32l0xx_hal_rcc_ex.c ****       if (srcclk == RCC_I2C3CLKSOURCE_PCLK1)
 650              		.loc 1 700 7 is_stmt 1 view .LVU172
 651              		.loc 1 700 10 is_stmt 0 view .LVU173
 652 002e 1A42     		tst	r2, r3
 653 0030 00D1     		bne	.LCB553
 654 0032 11E1     		b	.L92	@long jump
 655              	.LCB553:
 701:Drivers/STM32L0xx_HAL_Driver/Src/stm32l0xx_hal_rcc_ex.c ****       {
 702:Drivers/STM32L0xx_HAL_Driver/Src/stm32l0xx_hal_rcc_ex.c ****         frequency = HAL_RCC_GetPCLK1Freq();
 703:Drivers/STM32L0xx_HAL_Driver/Src/stm32l0xx_hal_rcc_ex.c ****       }
 704:Drivers/STM32L0xx_HAL_Driver/Src/stm32l0xx_hal_rcc_ex.c ****       /* Check if HSI is ready and if I2C3 clock selection is HSI */
 705:Drivers/STM32L0xx_HAL_Driver/Src/stm32l0xx_hal_rcc_ex.c ****       else if (srcclk == RCC_I2C3CLKSOURCE_HSI)
 656              		.loc 1 705 12 is_stmt 1 view .LVU174
 657              		.loc 1 705 15 is_stmt 0 view .LVU175
 658 0034 8023     		movs	r3, #128
 659 0036 9B02     		lsls	r3, r3, #10
 660 0038 9942     		cmp	r1, r3
 661 003a 00D1     		bne	.LCB558
 662 003c 0FE1     		b	.L93	@long jump
 663              	.LCB558:
 706:Drivers/STM32L0xx_HAL_Driver/Src/stm32l0xx_hal_rcc_ex.c ****       {
 707:Drivers/STM32L0xx_HAL_Driver/Src/stm32l0xx_hal_rcc_ex.c ****         if (HAL_IS_BIT_SET(RCC->CR, RCC_CR_HSIRDY))
 708:Drivers/STM32L0xx_HAL_Driver/Src/stm32l0xx_hal_rcc_ex.c ****         {
 709:Drivers/STM32L0xx_HAL_Driver/Src/stm32l0xx_hal_rcc_ex.c ****           if (READ_BIT(RCC->CR, RCC_CR_HSIDIVF) != 0U)
 710:Drivers/STM32L0xx_HAL_Driver/Src/stm32l0xx_hal_rcc_ex.c ****           {
 711:Drivers/STM32L0xx_HAL_Driver/Src/stm32l0xx_hal_rcc_ex.c ****             frequency =  (HSI_VALUE >> 2U);
 712:Drivers/STM32L0xx_HAL_Driver/Src/stm32l0xx_hal_rcc_ex.c ****           }
 713:Drivers/STM32L0xx_HAL_Driver/Src/stm32l0xx_hal_rcc_ex.c ****           else
 714:Drivers/STM32L0xx_HAL_Driver/Src/stm32l0xx_hal_rcc_ex.c ****           {
 715:Drivers/STM32L0xx_HAL_Driver/Src/stm32l0xx_hal_rcc_ex.c ****             frequency =  HSI_VALUE;
 716:Drivers/STM32L0xx_HAL_Driver/Src/stm32l0xx_hal_rcc_ex.c ****           }
 717:Drivers/STM32L0xx_HAL_Driver/Src/stm32l0xx_hal_rcc_ex.c ****         }
 718:Drivers/STM32L0xx_HAL_Driver/Src/stm32l0xx_hal_rcc_ex.c ****       }
 719:Drivers/STM32L0xx_HAL_Driver/Src/stm32l0xx_hal_rcc_ex.c ****       /* Check if I2C3 clock selection is SYSCLK */
 720:Drivers/STM32L0xx_HAL_Driver/Src/stm32l0xx_hal_rcc_ex.c ****       else if (srcclk == RCC_I2C3CLKSOURCE_SYSCLK)
 664              		.loc 1 720 12 is_stmt 1 view .LVU176
 665              		.loc 1 720 15 is_stmt 0 view .LVU177
 666 003e 8023     		movs	r3, #128
 667 0040 5B02     		lsls	r3, r3, #9
 668 0042 9942     		cmp	r1, r3
 669 0044 00D1     		bne	.LCB563
 670 0046 17E1     		b	.L94	@long jump
 671              	.LCB563:
 721:Drivers/STM32L0xx_HAL_Driver/Src/stm32l0xx_hal_rcc_ex.c ****       {
 722:Drivers/STM32L0xx_HAL_Driver/Src/stm32l0xx_hal_rcc_ex.c ****         frequency = HAL_RCC_GetSysClockFreq();
 723:Drivers/STM32L0xx_HAL_Driver/Src/stm32l0xx_hal_rcc_ex.c ****       }
 724:Drivers/STM32L0xx_HAL_Driver/Src/stm32l0xx_hal_rcc_ex.c ****       /* Clock not enabled for I2C3*/
 725:Drivers/STM32L0xx_HAL_Driver/Src/stm32l0xx_hal_rcc_ex.c ****       else
ARM GAS  C:\Users\User\AppData\Local\Temp\cc3ubKML.s 			page 26


 726:Drivers/STM32L0xx_HAL_Driver/Src/stm32l0xx_hal_rcc_ex.c ****       {
 727:Drivers/STM32L0xx_HAL_Driver/Src/stm32l0xx_hal_rcc_ex.c ****         frequency = 0U;
 672              		.loc 1 727 19 view .LVU178
 673 0048 0020     		movs	r0, #0
 674              	.LVL34:
 728:Drivers/STM32L0xx_HAL_Driver/Src/stm32l0xx_hal_rcc_ex.c ****       }
 729:Drivers/STM32L0xx_HAL_Driver/Src/stm32l0xx_hal_rcc_ex.c ****       break;
 730:Drivers/STM32L0xx_HAL_Driver/Src/stm32l0xx_hal_rcc_ex.c ****     }
 731:Drivers/STM32L0xx_HAL_Driver/Src/stm32l0xx_hal_rcc_ex.c **** #endif /* RCC_CCIPR_I2C3SEL */
 732:Drivers/STM32L0xx_HAL_Driver/Src/stm32l0xx_hal_rcc_ex.c ****   default:
 733:Drivers/STM32L0xx_HAL_Driver/Src/stm32l0xx_hal_rcc_ex.c ****     {
 734:Drivers/STM32L0xx_HAL_Driver/Src/stm32l0xx_hal_rcc_ex.c ****       break;
 735:Drivers/STM32L0xx_HAL_Driver/Src/stm32l0xx_hal_rcc_ex.c ****     }
 736:Drivers/STM32L0xx_HAL_Driver/Src/stm32l0xx_hal_rcc_ex.c ****   }
 737:Drivers/STM32L0xx_HAL_Driver/Src/stm32l0xx_hal_rcc_ex.c ****   return(frequency);
 675              		.loc 1 737 3 is_stmt 1 view .LVU179
 676              		.loc 1 737 9 is_stmt 0 view .LVU180
 677 004a 1BE1     		b	.L44
 678              	.LVL35:
 679              	.L91:
 385:Drivers/STM32L0xx_HAL_Driver/Src/stm32l0xx_hal_rcc_ex.c ****   {
 680              		.loc 1 385 3 view .LVU181
 681 004c 0020     		movs	r0, #0
 682              	.LVL36:
 385:Drivers/STM32L0xx_HAL_Driver/Src/stm32l0xx_hal_rcc_ex.c ****   {
 683              		.loc 1 385 3 view .LVU182
 684 004e 19E1     		b	.L44
 685              	.L47:
 393:Drivers/STM32L0xx_HAL_Driver/Src/stm32l0xx_hal_rcc_ex.c **** 
 686              		.loc 1 393 7 is_stmt 1 view .LVU183
 393:Drivers/STM32L0xx_HAL_Driver/Src/stm32l0xx_hal_rcc_ex.c **** 
 687              		.loc 1 393 16 is_stmt 0 view .LVU184
 688 0050 954B     		ldr	r3, .L114+4
 689 0052 196D     		ldr	r1, [r3, #80]
 690              	.LVL37:
 396:Drivers/STM32L0xx_HAL_Driver/Src/stm32l0xx_hal_rcc_ex.c **** 
 691              		.loc 1 396 7 is_stmt 1 view .LVU185
 396:Drivers/STM32L0xx_HAL_Driver/Src/stm32l0xx_hal_rcc_ex.c **** 
 692              		.loc 1 396 16 is_stmt 0 view .LVU186
 693 0054 1B6D     		ldr	r3, [r3, #80]
 396:Drivers/STM32L0xx_HAL_Driver/Src/stm32l0xx_hal_rcc_ex.c **** 
 694              		.loc 1 396 14 view .LVU187
 695 0056 C022     		movs	r2, #192
 696 0058 9202     		lsls	r2, r2, #10
 697 005a 1340     		ands	r3, r2
 698              	.LVL38:
 399:Drivers/STM32L0xx_HAL_Driver/Src/stm32l0xx_hal_rcc_ex.c ****       {
 699              		.loc 1 399 7 is_stmt 1 view .LVU188
 399:Drivers/STM32L0xx_HAL_Driver/Src/stm32l0xx_hal_rcc_ex.c ****       {
 700              		.loc 1 399 10 is_stmt 0 view .LVU189
 701 005c 8022     		movs	r2, #128
 702 005e 5202     		lsls	r2, r2, #9
 703 0060 9342     		cmp	r3, r2
 704 0062 09D0     		beq	.L95
 705              	.L55:
 404:Drivers/STM32L0xx_HAL_Driver/Src/stm32l0xx_hal_rcc_ex.c ****       {
 706              		.loc 1 404 12 is_stmt 1 view .LVU190
ARM GAS  C:\Users\User\AppData\Local\Temp\cc3ubKML.s 			page 27


 404:Drivers/STM32L0xx_HAL_Driver/Src/stm32l0xx_hal_rcc_ex.c ****       {
 707              		.loc 1 404 15 is_stmt 0 view .LVU191
 708 0064 8022     		movs	r2, #128
 709 0066 9202     		lsls	r2, r2, #10
 710 0068 9342     		cmp	r3, r2
 711 006a 0AD0     		beq	.L96
 412:Drivers/STM32L0xx_HAL_Driver/Src/stm32l0xx_hal_rcc_ex.c ****       {
 712              		.loc 1 412 12 is_stmt 1 view .LVU192
 412:Drivers/STM32L0xx_HAL_Driver/Src/stm32l0xx_hal_rcc_ex.c ****       {
 713              		.loc 1 412 15 is_stmt 0 view .LVU193
 714 006c C022     		movs	r2, #192
 715 006e 9202     		lsls	r2, r2, #10
 716 0070 9342     		cmp	r3, r2
 717 0072 0ED0     		beq	.L97
 447:Drivers/STM32L0xx_HAL_Driver/Src/stm32l0xx_hal_rcc_ex.c ****       }
 718              		.loc 1 447 19 view .LVU194
 719 0074 0020     		movs	r0, #0
 720 0076 05E1     		b	.L44
 721              	.L95:
 399:Drivers/STM32L0xx_HAL_Driver/Src/stm32l0xx_hal_rcc_ex.c ****       {
 722              		.loc 1 399 44 discriminator 1 view .LVU195
 723 0078 8A05     		lsls	r2, r1, #22
 724 007a F3D5     		bpl	.L55
 401:Drivers/STM32L0xx_HAL_Driver/Src/stm32l0xx_hal_rcc_ex.c ****       }
 725              		.loc 1 401 19 view .LVU196
 726 007c 8020     		movs	r0, #128
 727 007e 0002     		lsls	r0, r0, #8
 728 0080 00E1     		b	.L44
 729              	.L96:
 406:Drivers/STM32L0xx_HAL_Driver/Src/stm32l0xx_hal_rcc_ex.c ****         {
 730              		.loc 1 406 9 is_stmt 1 view .LVU197
 406:Drivers/STM32L0xx_HAL_Driver/Src/stm32l0xx_hal_rcc_ex.c ****         {
 731              		.loc 1 406 13 is_stmt 0 view .LVU198
 732 0082 0223     		movs	r3, #2
 733              	.LVL39:
 406:Drivers/STM32L0xx_HAL_Driver/Src/stm32l0xx_hal_rcc_ex.c ****         {
 734              		.loc 1 406 13 view .LVU199
 735 0084 1800     		movs	r0, r3
 736 0086 0840     		ands	r0, r1
 406:Drivers/STM32L0xx_HAL_Driver/Src/stm32l0xx_hal_rcc_ex.c ****         {
 737              		.loc 1 406 12 view .LVU200
 738 0088 0B42     		tst	r3, r1
 739 008a 00D1     		bne	.LCB627
 740 008c FAE0     		b	.L44	@long jump
 741              	.LCB627:
 408:Drivers/STM32L0xx_HAL_Driver/Src/stm32l0xx_hal_rcc_ex.c ****         }
 742              		.loc 1 408 21 view .LVU201
 743 008e 8748     		ldr	r0, .L114+8
 744 0090 F8E0     		b	.L44
 745              	.LVL40:
 746              	.L97:
 414:Drivers/STM32L0xx_HAL_Driver/Src/stm32l0xx_hal_rcc_ex.c ****         {
 747              		.loc 1 414 9 is_stmt 1 view .LVU202
 414:Drivers/STM32L0xx_HAL_Driver/Src/stm32l0xx_hal_rcc_ex.c ****         {
 748              		.loc 1 414 13 is_stmt 0 view .LVU203
 749 0092 854B     		ldr	r3, .L114+4
 750              	.LVL41:
ARM GAS  C:\Users\User\AppData\Local\Temp\cc3ubKML.s 			page 28


 414:Drivers/STM32L0xx_HAL_Driver/Src/stm32l0xx_hal_rcc_ex.c ****         {
 751              		.loc 1 414 13 view .LVU204
 752 0094 1A68     		ldr	r2, [r3]
 753 0096 8023     		movs	r3, #128
 754 0098 9B02     		lsls	r3, r3, #10
 755 009a 1000     		movs	r0, r2
 756 009c 1840     		ands	r0, r3
 414:Drivers/STM32L0xx_HAL_Driver/Src/stm32l0xx_hal_rcc_ex.c ****         {
 757              		.loc 1 414 12 view .LVU205
 758 009e 1A42     		tst	r2, r3
 759 00a0 00D1     		bne	.LCB644
 760 00a2 EFE0     		b	.L44	@long jump
 761              	.LCB644:
 417:Drivers/STM32L0xx_HAL_Driver/Src/stm32l0xx_hal_rcc_ex.c **** 
 762              		.loc 1 417 11 is_stmt 1 view .LVU206
 417:Drivers/STM32L0xx_HAL_Driver/Src/stm32l0xx_hal_rcc_ex.c **** 
 763              		.loc 1 417 23 is_stmt 0 view .LVU207
 764 00a4 804B     		ldr	r3, .L114+4
 765 00a6 1B68     		ldr	r3, [r3]
 417:Drivers/STM32L0xx_HAL_Driver/Src/stm32l0xx_hal_rcc_ex.c **** 
 766              		.loc 1 417 21 view .LVU208
 767 00a8 C022     		movs	r2, #192
 768 00aa 9203     		lsls	r2, r2, #14
 769 00ac 1340     		ands	r3, r2
 770              	.LVL42:
 419:Drivers/STM32L0xx_HAL_Driver/Src/stm32l0xx_hal_rcc_ex.c ****           {
 771              		.loc 1 419 11 is_stmt 1 view .LVU209
 772 00ae 8022     		movs	r2, #128
 773 00b0 9203     		lsls	r2, r2, #14
 774 00b2 9342     		cmp	r3, r2
 775 00b4 00D1     		bne	.LCB656
 776 00b6 E6E0     		b	.L75	@long jump
 777              	.LCB656:
 778 00b8 C022     		movs	r2, #192
 779 00ba 9203     		lsls	r2, r2, #14
 780 00bc 9342     		cmp	r3, r2
 781 00be 00D1     		bne	.LCB660
 782 00c0 E3E0     		b	.L76	@long jump
 783              	.LCB660:
 784 00c2 8022     		movs	r2, #128
 785 00c4 5203     		lsls	r2, r2, #13
 786 00c6 9342     		cmp	r3, r2
 787 00c8 01D0     		beq	.L98
 438:Drivers/STM32L0xx_HAL_Driver/Src/stm32l0xx_hal_rcc_ex.c ****               break;
 788              		.loc 1 438 25 is_stmt 0 view .LVU210
 789 00ca 7948     		ldr	r0, .L114+12
 790 00cc DAE0     		b	.L44
 791              	.L98:
 433:Drivers/STM32L0xx_HAL_Driver/Src/stm32l0xx_hal_rcc_ex.c ****               break;
 792              		.loc 1 433 25 view .LVU211
 793 00ce 7948     		ldr	r0, .L114+16
 794 00d0 D8E0     		b	.L44
 795              	.LVL43:
 796              	.L53:
 506:Drivers/STM32L0xx_HAL_Driver/Src/stm32l0xx_hal_rcc_ex.c **** 
 797              		.loc 1 506 7 is_stmt 1 view .LVU212
 506:Drivers/STM32L0xx_HAL_Driver/Src/stm32l0xx_hal_rcc_ex.c **** 
ARM GAS  C:\Users\User\AppData\Local\Temp\cc3ubKML.s 			page 29


 798              		.loc 1 506 16 is_stmt 0 view .LVU213
 799 00d2 754B     		ldr	r3, .L114+4
 800 00d4 DB6C     		ldr	r3, [r3, #76]
 506:Drivers/STM32L0xx_HAL_Driver/Src/stm32l0xx_hal_rcc_ex.c **** 
 801              		.loc 1 506 14 view .LVU214
 802 00d6 0322     		movs	r2, #3
 803 00d8 1100     		movs	r1, r2
 804 00da 1940     		ands	r1, r3
 805              	.LVL44:
 509:Drivers/STM32L0xx_HAL_Driver/Src/stm32l0xx_hal_rcc_ex.c ****       {
 806              		.loc 1 509 7 is_stmt 1 view .LVU215
 509:Drivers/STM32L0xx_HAL_Driver/Src/stm32l0xx_hal_rcc_ex.c ****       {
 807              		.loc 1 509 10 is_stmt 0 view .LVU216
 808 00dc 1A42     		tst	r2, r3
 809 00de 07D0     		beq	.L99
 514:Drivers/STM32L0xx_HAL_Driver/Src/stm32l0xx_hal_rcc_ex.c ****       {
 810              		.loc 1 514 12 is_stmt 1 view .LVU217
 514:Drivers/STM32L0xx_HAL_Driver/Src/stm32l0xx_hal_rcc_ex.c ****       {
 811              		.loc 1 514 15 is_stmt 0 view .LVU218
 812 00e0 0229     		cmp	r1, #2
 813 00e2 08D0     		beq	.L100
 529:Drivers/STM32L0xx_HAL_Driver/Src/stm32l0xx_hal_rcc_ex.c ****       {
 814              		.loc 1 529 12 is_stmt 1 view .LVU219
 529:Drivers/STM32L0xx_HAL_Driver/Src/stm32l0xx_hal_rcc_ex.c ****       {
 815              		.loc 1 529 15 is_stmt 0 view .LVU220
 816 00e4 0129     		cmp	r1, #1
 817 00e6 15D0     		beq	.L101
 534:Drivers/STM32L0xx_HAL_Driver/Src/stm32l0xx_hal_rcc_ex.c ****       {
 818              		.loc 1 534 12 is_stmt 1 view .LVU221
 534:Drivers/STM32L0xx_HAL_Driver/Src/stm32l0xx_hal_rcc_ex.c ****       {
 819              		.loc 1 534 15 is_stmt 0 view .LVU222
 820 00e8 0329     		cmp	r1, #3
 821 00ea 16D0     		beq	.L102
 544:Drivers/STM32L0xx_HAL_Driver/Src/stm32l0xx_hal_rcc_ex.c ****       }
 822              		.loc 1 544 19 view .LVU223
 823 00ec 0020     		movs	r0, #0
 824 00ee C9E0     		b	.L44
 825              	.L99:
 511:Drivers/STM32L0xx_HAL_Driver/Src/stm32l0xx_hal_rcc_ex.c ****       }
 826              		.loc 1 511 9 is_stmt 1 view .LVU224
 511:Drivers/STM32L0xx_HAL_Driver/Src/stm32l0xx_hal_rcc_ex.c ****       }
 827              		.loc 1 511 21 is_stmt 0 view .LVU225
 828 00f0 FFF7FEFF 		bl	HAL_RCC_GetPCLK2Freq
 829              	.LVL45:
 511:Drivers/STM32L0xx_HAL_Driver/Src/stm32l0xx_hal_rcc_ex.c ****       }
 830              		.loc 1 511 21 view .LVU226
 831 00f4 C6E0     		b	.L44
 832              	.LVL46:
 833              	.L100:
 516:Drivers/STM32L0xx_HAL_Driver/Src/stm32l0xx_hal_rcc_ex.c ****         {
 834              		.loc 1 516 9 is_stmt 1 view .LVU227
 516:Drivers/STM32L0xx_HAL_Driver/Src/stm32l0xx_hal_rcc_ex.c ****         {
 835              		.loc 1 516 13 is_stmt 0 view .LVU228
 836 00f6 6C4B     		ldr	r3, .L114+4
 837 00f8 1B68     		ldr	r3, [r3]
 838 00fa 0422     		movs	r2, #4
 839 00fc 1000     		movs	r0, r2
ARM GAS  C:\Users\User\AppData\Local\Temp\cc3ubKML.s 			page 30


 840 00fe 1840     		ands	r0, r3
 516:Drivers/STM32L0xx_HAL_Driver/Src/stm32l0xx_hal_rcc_ex.c ****         {
 841              		.loc 1 516 12 view .LVU229
 842 0100 1A42     		tst	r2, r3
 843 0102 00D1     		bne	.LCB719
 844 0104 BEE0     		b	.L44	@long jump
 845              	.LCB719:
 518:Drivers/STM32L0xx_HAL_Driver/Src/stm32l0xx_hal_rcc_ex.c ****           {
 846              		.loc 1 518 11 is_stmt 1 view .LVU230
 518:Drivers/STM32L0xx_HAL_Driver/Src/stm32l0xx_hal_rcc_ex.c ****           {
 847              		.loc 1 518 15 is_stmt 0 view .LVU231
 848 0106 684B     		ldr	r3, .L114+4
 849 0108 1B68     		ldr	r3, [r3]
 518:Drivers/STM32L0xx_HAL_Driver/Src/stm32l0xx_hal_rcc_ex.c ****           {
 850              		.loc 1 518 14 view .LVU232
 851 010a DB06     		lsls	r3, r3, #27
 852 010c 00D4     		bmi	.LCB726
 853 010e BEE0     		b	.L78	@long jump
 854              	.LCB726:
 520:Drivers/STM32L0xx_HAL_Driver/Src/stm32l0xx_hal_rcc_ex.c ****           }
 855              		.loc 1 520 23 view .LVU233
 856 0110 6748     		ldr	r0, .L114+12
 857 0112 B7E0     		b	.L44
 858              	.L101:
 531:Drivers/STM32L0xx_HAL_Driver/Src/stm32l0xx_hal_rcc_ex.c ****       }
 859              		.loc 1 531 9 is_stmt 1 view .LVU234
 531:Drivers/STM32L0xx_HAL_Driver/Src/stm32l0xx_hal_rcc_ex.c ****       }
 860              		.loc 1 531 21 is_stmt 0 view .LVU235
 861 0114 FFF7FEFF 		bl	HAL_RCC_GetSysClockFreq
 862              	.LVL47:
 531:Drivers/STM32L0xx_HAL_Driver/Src/stm32l0xx_hal_rcc_ex.c ****       }
 863              		.loc 1 531 21 view .LVU236
 864 0118 B4E0     		b	.L44
 865              	.LVL48:
 866              	.L102:
 536:Drivers/STM32L0xx_HAL_Driver/Src/stm32l0xx_hal_rcc_ex.c ****         {
 867              		.loc 1 536 9 is_stmt 1 view .LVU237
 536:Drivers/STM32L0xx_HAL_Driver/Src/stm32l0xx_hal_rcc_ex.c ****         {
 868              		.loc 1 536 13 is_stmt 0 view .LVU238
 869 011a 634B     		ldr	r3, .L114+4
 870 011c 1A6D     		ldr	r2, [r3, #80]
 871 011e 8023     		movs	r3, #128
 872 0120 9B00     		lsls	r3, r3, #2
 873 0122 1000     		movs	r0, r2
 874 0124 1840     		ands	r0, r3
 536:Drivers/STM32L0xx_HAL_Driver/Src/stm32l0xx_hal_rcc_ex.c ****         {
 875              		.loc 1 536 12 view .LVU239
 876 0126 1A42     		tst	r2, r3
 877 0128 00D1     		bne	.LCB750
 878 012a ABE0     		b	.L44	@long jump
 879              	.LCB750:
 538:Drivers/STM32L0xx_HAL_Driver/Src/stm32l0xx_hal_rcc_ex.c ****         }
 880              		.loc 1 538 21 view .LVU240
 881 012c 8020     		movs	r0, #128
 882 012e 0002     		lsls	r0, r0, #8
 883 0130 A8E0     		b	.L44
 884              	.LVL49:
ARM GAS  C:\Users\User\AppData\Local\Temp\cc3ubKML.s 			page 31


 885              	.L52:
 552:Drivers/STM32L0xx_HAL_Driver/Src/stm32l0xx_hal_rcc_ex.c **** 
 886              		.loc 1 552 7 is_stmt 1 view .LVU241
 552:Drivers/STM32L0xx_HAL_Driver/Src/stm32l0xx_hal_rcc_ex.c **** 
 887              		.loc 1 552 16 is_stmt 0 view .LVU242
 888 0132 5D4B     		ldr	r3, .L114+4
 889 0134 DB6C     		ldr	r3, [r3, #76]
 552:Drivers/STM32L0xx_HAL_Driver/Src/stm32l0xx_hal_rcc_ex.c **** 
 890              		.loc 1 552 14 view .LVU243
 891 0136 0C22     		movs	r2, #12
 892 0138 1100     		movs	r1, r2
 893 013a 1940     		ands	r1, r3
 894              	.LVL50:
 555:Drivers/STM32L0xx_HAL_Driver/Src/stm32l0xx_hal_rcc_ex.c ****       {
 895              		.loc 1 555 7 is_stmt 1 view .LVU244
 555:Drivers/STM32L0xx_HAL_Driver/Src/stm32l0xx_hal_rcc_ex.c ****       {
 896              		.loc 1 555 10 is_stmt 0 view .LVU245
 897 013c 1A42     		tst	r2, r3
 898 013e 07D0     		beq	.L103
 560:Drivers/STM32L0xx_HAL_Driver/Src/stm32l0xx_hal_rcc_ex.c ****       {
 899              		.loc 1 560 12 is_stmt 1 view .LVU246
 560:Drivers/STM32L0xx_HAL_Driver/Src/stm32l0xx_hal_rcc_ex.c ****       {
 900              		.loc 1 560 15 is_stmt 0 view .LVU247
 901 0140 0829     		cmp	r1, #8
 902 0142 08D0     		beq	.L104
 575:Drivers/STM32L0xx_HAL_Driver/Src/stm32l0xx_hal_rcc_ex.c ****       {
 903              		.loc 1 575 12 is_stmt 1 view .LVU248
 575:Drivers/STM32L0xx_HAL_Driver/Src/stm32l0xx_hal_rcc_ex.c ****       {
 904              		.loc 1 575 15 is_stmt 0 view .LVU249
 905 0144 0429     		cmp	r1, #4
 906 0146 15D0     		beq	.L105
 580:Drivers/STM32L0xx_HAL_Driver/Src/stm32l0xx_hal_rcc_ex.c ****       {
 907              		.loc 1 580 12 is_stmt 1 view .LVU250
 580:Drivers/STM32L0xx_HAL_Driver/Src/stm32l0xx_hal_rcc_ex.c ****       {
 908              		.loc 1 580 15 is_stmt 0 view .LVU251
 909 0148 0C29     		cmp	r1, #12
 910 014a 16D0     		beq	.L106
 590:Drivers/STM32L0xx_HAL_Driver/Src/stm32l0xx_hal_rcc_ex.c ****       }
 911              		.loc 1 590 19 view .LVU252
 912 014c 0020     		movs	r0, #0
 913 014e 99E0     		b	.L44
 914              	.L103:
 557:Drivers/STM32L0xx_HAL_Driver/Src/stm32l0xx_hal_rcc_ex.c ****       }
 915              		.loc 1 557 9 is_stmt 1 view .LVU253
 557:Drivers/STM32L0xx_HAL_Driver/Src/stm32l0xx_hal_rcc_ex.c ****       }
 916              		.loc 1 557 21 is_stmt 0 view .LVU254
 917 0150 FFF7FEFF 		bl	HAL_RCC_GetPCLK1Freq
 918              	.LVL51:
 557:Drivers/STM32L0xx_HAL_Driver/Src/stm32l0xx_hal_rcc_ex.c ****       }
 919              		.loc 1 557 21 view .LVU255
 920 0154 96E0     		b	.L44
 921              	.LVL52:
 922              	.L104:
 562:Drivers/STM32L0xx_HAL_Driver/Src/stm32l0xx_hal_rcc_ex.c ****         {
 923              		.loc 1 562 9 is_stmt 1 view .LVU256
 562:Drivers/STM32L0xx_HAL_Driver/Src/stm32l0xx_hal_rcc_ex.c ****         {
 924              		.loc 1 562 13 is_stmt 0 view .LVU257
ARM GAS  C:\Users\User\AppData\Local\Temp\cc3ubKML.s 			page 32


 925 0156 544B     		ldr	r3, .L114+4
 926 0158 1B68     		ldr	r3, [r3]
 927 015a 0422     		movs	r2, #4
 928 015c 1000     		movs	r0, r2
 929 015e 1840     		ands	r0, r3
 562:Drivers/STM32L0xx_HAL_Driver/Src/stm32l0xx_hal_rcc_ex.c ****         {
 930              		.loc 1 562 12 view .LVU258
 931 0160 1A42     		tst	r2, r3
 932 0162 00D1     		bne	.LCB799
 933 0164 8EE0     		b	.L44	@long jump
 934              	.LCB799:
 564:Drivers/STM32L0xx_HAL_Driver/Src/stm32l0xx_hal_rcc_ex.c ****           {
 935              		.loc 1 564 11 is_stmt 1 view .LVU259
 564:Drivers/STM32L0xx_HAL_Driver/Src/stm32l0xx_hal_rcc_ex.c ****           {
 936              		.loc 1 564 15 is_stmt 0 view .LVU260
 937 0166 504B     		ldr	r3, .L114+4
 938 0168 1B68     		ldr	r3, [r3]
 564:Drivers/STM32L0xx_HAL_Driver/Src/stm32l0xx_hal_rcc_ex.c ****           {
 939              		.loc 1 564 14 view .LVU261
 940 016a DB06     		lsls	r3, r3, #27
 941 016c 00D4     		bmi	.LCB806
 942 016e 90E0     		b	.L81	@long jump
 943              	.LCB806:
 566:Drivers/STM32L0xx_HAL_Driver/Src/stm32l0xx_hal_rcc_ex.c ****           }
 944              		.loc 1 566 23 view .LVU262
 945 0170 4F48     		ldr	r0, .L114+12
 946 0172 87E0     		b	.L44
 947              	.L105:
 577:Drivers/STM32L0xx_HAL_Driver/Src/stm32l0xx_hal_rcc_ex.c ****       }
 948              		.loc 1 577 9 is_stmt 1 view .LVU263
 577:Drivers/STM32L0xx_HAL_Driver/Src/stm32l0xx_hal_rcc_ex.c ****       }
 949              		.loc 1 577 21 is_stmt 0 view .LVU264
 950 0174 FFF7FEFF 		bl	HAL_RCC_GetSysClockFreq
 951              	.LVL53:
 577:Drivers/STM32L0xx_HAL_Driver/Src/stm32l0xx_hal_rcc_ex.c ****       }
 952              		.loc 1 577 21 view .LVU265
 953 0178 84E0     		b	.L44
 954              	.LVL54:
 955              	.L106:
 582:Drivers/STM32L0xx_HAL_Driver/Src/stm32l0xx_hal_rcc_ex.c ****         {
 956              		.loc 1 582 9 is_stmt 1 view .LVU266
 582:Drivers/STM32L0xx_HAL_Driver/Src/stm32l0xx_hal_rcc_ex.c ****         {
 957              		.loc 1 582 13 is_stmt 0 view .LVU267
 958 017a 4B4B     		ldr	r3, .L114+4
 959 017c 1A6D     		ldr	r2, [r3, #80]
 960 017e 8023     		movs	r3, #128
 961 0180 9B00     		lsls	r3, r3, #2
 962 0182 1000     		movs	r0, r2
 963 0184 1840     		ands	r0, r3
 582:Drivers/STM32L0xx_HAL_Driver/Src/stm32l0xx_hal_rcc_ex.c ****         {
 964              		.loc 1 582 12 view .LVU268
 965 0186 1A42     		tst	r2, r3
 966 0188 7CD0     		beq	.L44
 584:Drivers/STM32L0xx_HAL_Driver/Src/stm32l0xx_hal_rcc_ex.c ****         }
 967              		.loc 1 584 21 view .LVU269
 968 018a 8020     		movs	r0, #128
 969 018c 0002     		lsls	r0, r0, #8
ARM GAS  C:\Users\User\AppData\Local\Temp\cc3ubKML.s 			page 33


 970 018e 79E0     		b	.L44
 971              	.LVL55:
 972              	.L51:
 597:Drivers/STM32L0xx_HAL_Driver/Src/stm32l0xx_hal_rcc_ex.c **** 
 973              		.loc 1 597 7 is_stmt 1 view .LVU270
 597:Drivers/STM32L0xx_HAL_Driver/Src/stm32l0xx_hal_rcc_ex.c **** 
 974              		.loc 1 597 16 is_stmt 0 view .LVU271
 975 0190 454B     		ldr	r3, .L114+4
 976 0192 DA6C     		ldr	r2, [r3, #76]
 597:Drivers/STM32L0xx_HAL_Driver/Src/stm32l0xx_hal_rcc_ex.c **** 
 977              		.loc 1 597 14 view .LVU272
 978 0194 C023     		movs	r3, #192
 979 0196 1B01     		lsls	r3, r3, #4
 980 0198 1100     		movs	r1, r2
 981 019a 1940     		ands	r1, r3
 982              	.LVL56:
 600:Drivers/STM32L0xx_HAL_Driver/Src/stm32l0xx_hal_rcc_ex.c ****       {
 983              		.loc 1 600 7 is_stmt 1 view .LVU273
 600:Drivers/STM32L0xx_HAL_Driver/Src/stm32l0xx_hal_rcc_ex.c ****       {
 984              		.loc 1 600 10 is_stmt 0 view .LVU274
 985 019c 1A42     		tst	r2, r3
 986 019e 0DD0     		beq	.L107
 605:Drivers/STM32L0xx_HAL_Driver/Src/stm32l0xx_hal_rcc_ex.c ****       {
 987              		.loc 1 605 12 is_stmt 1 view .LVU275
 605:Drivers/STM32L0xx_HAL_Driver/Src/stm32l0xx_hal_rcc_ex.c ****       {
 988              		.loc 1 605 15 is_stmt 0 view .LVU276
 989 01a0 8023     		movs	r3, #128
 990 01a2 1B01     		lsls	r3, r3, #4
 991 01a4 9942     		cmp	r1, r3
 992 01a6 0CD0     		beq	.L108
 620:Drivers/STM32L0xx_HAL_Driver/Src/stm32l0xx_hal_rcc_ex.c ****       {
 993              		.loc 1 620 12 is_stmt 1 view .LVU277
 620:Drivers/STM32L0xx_HAL_Driver/Src/stm32l0xx_hal_rcc_ex.c ****       {
 994              		.loc 1 620 15 is_stmt 0 view .LVU278
 995 01a8 8023     		movs	r3, #128
 996 01aa DB00     		lsls	r3, r3, #3
 997 01ac 9942     		cmp	r1, r3
 998 01ae 15D0     		beq	.L109
 625:Drivers/STM32L0xx_HAL_Driver/Src/stm32l0xx_hal_rcc_ex.c ****       {
 999              		.loc 1 625 12 is_stmt 1 view .LVU279
 625:Drivers/STM32L0xx_HAL_Driver/Src/stm32l0xx_hal_rcc_ex.c ****       {
 1000              		.loc 1 625 15 is_stmt 0 view .LVU280
 1001 01b0 C023     		movs	r3, #192
 1002 01b2 1B01     		lsls	r3, r3, #4
 1003 01b4 9942     		cmp	r1, r3
 1004 01b6 14D0     		beq	.L110
 635:Drivers/STM32L0xx_HAL_Driver/Src/stm32l0xx_hal_rcc_ex.c ****       }
 1005              		.loc 1 635 19 view .LVU281
 1006 01b8 0020     		movs	r0, #0
 1007 01ba 63E0     		b	.L44
 1008              	.L107:
 602:Drivers/STM32L0xx_HAL_Driver/Src/stm32l0xx_hal_rcc_ex.c ****       }
 1009              		.loc 1 602 9 is_stmt 1 view .LVU282
 602:Drivers/STM32L0xx_HAL_Driver/Src/stm32l0xx_hal_rcc_ex.c ****       }
 1010              		.loc 1 602 21 is_stmt 0 view .LVU283
 1011 01bc FFF7FEFF 		bl	HAL_RCC_GetPCLK1Freq
 1012              	.LVL57:
ARM GAS  C:\Users\User\AppData\Local\Temp\cc3ubKML.s 			page 34


 602:Drivers/STM32L0xx_HAL_Driver/Src/stm32l0xx_hal_rcc_ex.c ****       }
 1013              		.loc 1 602 21 view .LVU284
 1014 01c0 60E0     		b	.L44
 1015              	.LVL58:
 1016              	.L108:
 607:Drivers/STM32L0xx_HAL_Driver/Src/stm32l0xx_hal_rcc_ex.c ****         {
 1017              		.loc 1 607 9 is_stmt 1 view .LVU285
 607:Drivers/STM32L0xx_HAL_Driver/Src/stm32l0xx_hal_rcc_ex.c ****         {
 1018              		.loc 1 607 13 is_stmt 0 view .LVU286
 1019 01c2 394B     		ldr	r3, .L114+4
 1020 01c4 1B68     		ldr	r3, [r3]
 1021 01c6 0422     		movs	r2, #4
 1022 01c8 1000     		movs	r0, r2
 1023 01ca 1840     		ands	r0, r3
 607:Drivers/STM32L0xx_HAL_Driver/Src/stm32l0xx_hal_rcc_ex.c ****         {
 1024              		.loc 1 607 12 view .LVU287
 1025 01cc 1A42     		tst	r2, r3
 1026 01ce 59D0     		beq	.L44
 609:Drivers/STM32L0xx_HAL_Driver/Src/stm32l0xx_hal_rcc_ex.c ****           {
 1027              		.loc 1 609 11 is_stmt 1 view .LVU288
 609:Drivers/STM32L0xx_HAL_Driver/Src/stm32l0xx_hal_rcc_ex.c ****           {
 1028              		.loc 1 609 15 is_stmt 0 view .LVU289
 1029 01d0 354B     		ldr	r3, .L114+4
 1030 01d2 1B68     		ldr	r3, [r3]
 609:Drivers/STM32L0xx_HAL_Driver/Src/stm32l0xx_hal_rcc_ex.c ****           {
 1031              		.loc 1 609 14 view .LVU290
 1032 01d4 DB06     		lsls	r3, r3, #27
 1033 01d6 5ED5     		bpl	.L84
 611:Drivers/STM32L0xx_HAL_Driver/Src/stm32l0xx_hal_rcc_ex.c ****           }
 1034              		.loc 1 611 23 view .LVU291
 1035 01d8 3548     		ldr	r0, .L114+12
 1036 01da 53E0     		b	.L44
 1037              	.L109:
 622:Drivers/STM32L0xx_HAL_Driver/Src/stm32l0xx_hal_rcc_ex.c ****       }
 1038              		.loc 1 622 9 is_stmt 1 view .LVU292
 622:Drivers/STM32L0xx_HAL_Driver/Src/stm32l0xx_hal_rcc_ex.c ****       }
 1039              		.loc 1 622 21 is_stmt 0 view .LVU293
 1040 01dc FFF7FEFF 		bl	HAL_RCC_GetSysClockFreq
 1041              	.LVL59:
 622:Drivers/STM32L0xx_HAL_Driver/Src/stm32l0xx_hal_rcc_ex.c ****       }
 1042              		.loc 1 622 21 view .LVU294
 1043 01e0 50E0     		b	.L44
 1044              	.LVL60:
 1045              	.L110:
 627:Drivers/STM32L0xx_HAL_Driver/Src/stm32l0xx_hal_rcc_ex.c ****         {
 1046              		.loc 1 627 9 is_stmt 1 view .LVU295
 627:Drivers/STM32L0xx_HAL_Driver/Src/stm32l0xx_hal_rcc_ex.c ****         {
 1047              		.loc 1 627 13 is_stmt 0 view .LVU296
 1048 01e2 314B     		ldr	r3, .L114+4
 1049 01e4 1A6D     		ldr	r2, [r3, #80]
 1050 01e6 8023     		movs	r3, #128
 1051 01e8 9B00     		lsls	r3, r3, #2
 1052 01ea 1000     		movs	r0, r2
 1053 01ec 1840     		ands	r0, r3
 627:Drivers/STM32L0xx_HAL_Driver/Src/stm32l0xx_hal_rcc_ex.c ****         {
 1054              		.loc 1 627 12 view .LVU297
 1055 01ee 1A42     		tst	r2, r3
ARM GAS  C:\Users\User\AppData\Local\Temp\cc3ubKML.s 			page 35


 1056 01f0 48D0     		beq	.L44
 629:Drivers/STM32L0xx_HAL_Driver/Src/stm32l0xx_hal_rcc_ex.c ****         }
 1057              		.loc 1 629 21 view .LVU298
 1058 01f2 8020     		movs	r0, #128
 1059 01f4 0002     		lsls	r0, r0, #8
 1060 01f6 45E0     		b	.L44
 1061              	.LVL61:
 1062              	.L50:
 642:Drivers/STM32L0xx_HAL_Driver/Src/stm32l0xx_hal_rcc_ex.c **** 
 1063              		.loc 1 642 7 is_stmt 1 view .LVU299
 642:Drivers/STM32L0xx_HAL_Driver/Src/stm32l0xx_hal_rcc_ex.c **** 
 1064              		.loc 1 642 16 is_stmt 0 view .LVU300
 1065 01f8 2B4B     		ldr	r3, .L114+4
 1066 01fa DA6C     		ldr	r2, [r3, #76]
 642:Drivers/STM32L0xx_HAL_Driver/Src/stm32l0xx_hal_rcc_ex.c **** 
 1067              		.loc 1 642 14 view .LVU301
 1068 01fc C023     		movs	r3, #192
 1069 01fe 9B01     		lsls	r3, r3, #6
 1070 0200 1100     		movs	r1, r2
 1071 0202 1940     		ands	r1, r3
 1072              	.LVL62:
 645:Drivers/STM32L0xx_HAL_Driver/Src/stm32l0xx_hal_rcc_ex.c ****       {
 1073              		.loc 1 645 7 is_stmt 1 view .LVU302
 645:Drivers/STM32L0xx_HAL_Driver/Src/stm32l0xx_hal_rcc_ex.c ****       {
 1074              		.loc 1 645 10 is_stmt 0 view .LVU303
 1075 0204 1A42     		tst	r2, r3
 1076 0206 09D0     		beq	.L111
 650:Drivers/STM32L0xx_HAL_Driver/Src/stm32l0xx_hal_rcc_ex.c ****       {
 1077              		.loc 1 650 12 is_stmt 1 view .LVU304
 650:Drivers/STM32L0xx_HAL_Driver/Src/stm32l0xx_hal_rcc_ex.c ****       {
 1078              		.loc 1 650 15 is_stmt 0 view .LVU305
 1079 0208 8023     		movs	r3, #128
 1080 020a 9B01     		lsls	r3, r3, #6
 1081 020c 9942     		cmp	r1, r3
 1082 020e 08D0     		beq	.L112
 665:Drivers/STM32L0xx_HAL_Driver/Src/stm32l0xx_hal_rcc_ex.c ****       {
 1083              		.loc 1 665 12 is_stmt 1 view .LVU306
 665:Drivers/STM32L0xx_HAL_Driver/Src/stm32l0xx_hal_rcc_ex.c ****       {
 1084              		.loc 1 665 15 is_stmt 0 view .LVU307
 1085 0210 8023     		movs	r3, #128
 1086 0212 5B01     		lsls	r3, r3, #5
 1087 0214 9942     		cmp	r1, r3
 1088 0216 11D0     		beq	.L113
 672:Drivers/STM32L0xx_HAL_Driver/Src/stm32l0xx_hal_rcc_ex.c ****       }
 1089              		.loc 1 672 19 view .LVU308
 1090 0218 0020     		movs	r0, #0
 1091 021a 33E0     		b	.L44
 1092              	.L111:
 647:Drivers/STM32L0xx_HAL_Driver/Src/stm32l0xx_hal_rcc_ex.c ****       }
 1093              		.loc 1 647 9 is_stmt 1 view .LVU309
 647:Drivers/STM32L0xx_HAL_Driver/Src/stm32l0xx_hal_rcc_ex.c ****       }
 1094              		.loc 1 647 21 is_stmt 0 view .LVU310
 1095 021c FFF7FEFF 		bl	HAL_RCC_GetPCLK1Freq
 1096              	.LVL63:
 647:Drivers/STM32L0xx_HAL_Driver/Src/stm32l0xx_hal_rcc_ex.c ****       }
 1097              		.loc 1 647 21 view .LVU311
 1098 0220 30E0     		b	.L44
ARM GAS  C:\Users\User\AppData\Local\Temp\cc3ubKML.s 			page 36


 1099              	.LVL64:
 1100              	.L112:
 652:Drivers/STM32L0xx_HAL_Driver/Src/stm32l0xx_hal_rcc_ex.c ****         {
 1101              		.loc 1 652 9 is_stmt 1 view .LVU312
 652:Drivers/STM32L0xx_HAL_Driver/Src/stm32l0xx_hal_rcc_ex.c ****         {
 1102              		.loc 1 652 13 is_stmt 0 view .LVU313
 1103 0222 214B     		ldr	r3, .L114+4
 1104 0224 1B68     		ldr	r3, [r3]
 1105 0226 0422     		movs	r2, #4
 1106 0228 1000     		movs	r0, r2
 1107 022a 1840     		ands	r0, r3
 652:Drivers/STM32L0xx_HAL_Driver/Src/stm32l0xx_hal_rcc_ex.c ****         {
 1108              		.loc 1 652 12 view .LVU314
 1109 022c 1A42     		tst	r2, r3
 1110 022e 29D0     		beq	.L44
 654:Drivers/STM32L0xx_HAL_Driver/Src/stm32l0xx_hal_rcc_ex.c ****           {
 1111              		.loc 1 654 11 is_stmt 1 view .LVU315
 654:Drivers/STM32L0xx_HAL_Driver/Src/stm32l0xx_hal_rcc_ex.c ****           {
 1112              		.loc 1 654 15 is_stmt 0 view .LVU316
 1113 0230 1D4B     		ldr	r3, .L114+4
 1114 0232 1B68     		ldr	r3, [r3]
 654:Drivers/STM32L0xx_HAL_Driver/Src/stm32l0xx_hal_rcc_ex.c ****           {
 1115              		.loc 1 654 14 view .LVU317
 1116 0234 DB06     		lsls	r3, r3, #27
 1117 0236 30D5     		bpl	.L87
 656:Drivers/STM32L0xx_HAL_Driver/Src/stm32l0xx_hal_rcc_ex.c ****           }
 1118              		.loc 1 656 23 view .LVU318
 1119 0238 1D48     		ldr	r0, .L114+12
 1120 023a 23E0     		b	.L44
 1121              	.L113:
 667:Drivers/STM32L0xx_HAL_Driver/Src/stm32l0xx_hal_rcc_ex.c ****       }
 1122              		.loc 1 667 9 is_stmt 1 view .LVU319
 667:Drivers/STM32L0xx_HAL_Driver/Src/stm32l0xx_hal_rcc_ex.c ****       }
 1123              		.loc 1 667 21 is_stmt 0 view .LVU320
 1124 023c FFF7FEFF 		bl	HAL_RCC_GetSysClockFreq
 1125              	.LVL65:
 667:Drivers/STM32L0xx_HAL_Driver/Src/stm32l0xx_hal_rcc_ex.c ****       }
 1126              		.loc 1 667 21 view .LVU321
 1127 0240 20E0     		b	.L44
 1128              	.LVL66:
 1129              	.L49:
 681:Drivers/STM32L0xx_HAL_Driver/Src/stm32l0xx_hal_rcc_ex.c ****       {
 1130              		.loc 1 681 7 is_stmt 1 view .LVU322
 681:Drivers/STM32L0xx_HAL_Driver/Src/stm32l0xx_hal_rcc_ex.c ****       {
 1131              		.loc 1 681 11 is_stmt 0 view .LVU323
 1132 0242 194B     		ldr	r3, .L114+4
 1133 0244 9A6B     		ldr	r2, [r3, #56]
 1134 0246 8023     		movs	r3, #128
 1135 0248 DB03     		lsls	r3, r3, #15
 1136 024a 1000     		movs	r0, r2
 1137 024c 1840     		ands	r0, r3
 681:Drivers/STM32L0xx_HAL_Driver/Src/stm32l0xx_hal_rcc_ex.c ****       {
 1138              		.loc 1 681 10 view .LVU324
 1139 024e 1A42     		tst	r2, r3
 1140 0250 18D0     		beq	.L44
 683:Drivers/STM32L0xx_HAL_Driver/Src/stm32l0xx_hal_rcc_ex.c ****       }
 1141              		.loc 1 683 9 is_stmt 1 view .LVU325
ARM GAS  C:\Users\User\AppData\Local\Temp\cc3ubKML.s 			page 37


 683:Drivers/STM32L0xx_HAL_Driver/Src/stm32l0xx_hal_rcc_ex.c ****       }
 1142              		.loc 1 683 21 is_stmt 0 view .LVU326
 1143 0252 FFF7FEFF 		bl	HAL_RCC_GetPCLK1Freq
 1144              	.LVL67:
 683:Drivers/STM32L0xx_HAL_Driver/Src/stm32l0xx_hal_rcc_ex.c ****       }
 1145              		.loc 1 683 21 view .LVU327
 1146 0256 15E0     		b	.L44
 1147              	.LVL68:
 1148              	.L92:
 702:Drivers/STM32L0xx_HAL_Driver/Src/stm32l0xx_hal_rcc_ex.c ****       }
 1149              		.loc 1 702 9 is_stmt 1 view .LVU328
 702:Drivers/STM32L0xx_HAL_Driver/Src/stm32l0xx_hal_rcc_ex.c ****       }
 1150              		.loc 1 702 21 is_stmt 0 view .LVU329
 1151 0258 FFF7FEFF 		bl	HAL_RCC_GetPCLK1Freq
 1152              	.LVL69:
 702:Drivers/STM32L0xx_HAL_Driver/Src/stm32l0xx_hal_rcc_ex.c ****       }
 1153              		.loc 1 702 21 view .LVU330
 1154 025c 12E0     		b	.L44
 1155              	.LVL70:
 1156              	.L93:
 707:Drivers/STM32L0xx_HAL_Driver/Src/stm32l0xx_hal_rcc_ex.c ****         {
 1157              		.loc 1 707 9 is_stmt 1 view .LVU331
 707:Drivers/STM32L0xx_HAL_Driver/Src/stm32l0xx_hal_rcc_ex.c ****         {
 1158              		.loc 1 707 13 is_stmt 0 view .LVU332
 1159 025e 124B     		ldr	r3, .L114+4
 1160 0260 1B68     		ldr	r3, [r3]
 1161 0262 0422     		movs	r2, #4
 1162 0264 1000     		movs	r0, r2
 1163              	.LVL71:
 707:Drivers/STM32L0xx_HAL_Driver/Src/stm32l0xx_hal_rcc_ex.c ****         {
 1164              		.loc 1 707 13 view .LVU333
 1165 0266 1840     		ands	r0, r3
 707:Drivers/STM32L0xx_HAL_Driver/Src/stm32l0xx_hal_rcc_ex.c ****         {
 1166              		.loc 1 707 12 view .LVU334
 1167 0268 1A42     		tst	r2, r3
 1168 026a 0BD0     		beq	.L44
 709:Drivers/STM32L0xx_HAL_Driver/Src/stm32l0xx_hal_rcc_ex.c ****           {
 1169              		.loc 1 709 11 is_stmt 1 view .LVU335
 709:Drivers/STM32L0xx_HAL_Driver/Src/stm32l0xx_hal_rcc_ex.c ****           {
 1170              		.loc 1 709 15 is_stmt 0 view .LVU336
 1171 026c 0E4B     		ldr	r3, .L114+4
 1172 026e 1B68     		ldr	r3, [r3]
 709:Drivers/STM32L0xx_HAL_Driver/Src/stm32l0xx_hal_rcc_ex.c ****           {
 1173              		.loc 1 709 14 view .LVU337
 1174 0270 DB06     		lsls	r3, r3, #27
 1175 0272 14D5     		bpl	.L89
 711:Drivers/STM32L0xx_HAL_Driver/Src/stm32l0xx_hal_rcc_ex.c ****           }
 1176              		.loc 1 711 23 view .LVU338
 1177 0274 0E48     		ldr	r0, .L114+12
 1178 0276 05E0     		b	.L44
 1179              	.LVL72:
 1180              	.L94:
 722:Drivers/STM32L0xx_HAL_Driver/Src/stm32l0xx_hal_rcc_ex.c ****       }
 1181              		.loc 1 722 9 is_stmt 1 view .LVU339
 722:Drivers/STM32L0xx_HAL_Driver/Src/stm32l0xx_hal_rcc_ex.c ****       }
 1182              		.loc 1 722 21 is_stmt 0 view .LVU340
 1183 0278 FFF7FEFF 		bl	HAL_RCC_GetSysClockFreq
ARM GAS  C:\Users\User\AppData\Local\Temp\cc3ubKML.s 			page 38


 1184              	.LVL73:
 722:Drivers/STM32L0xx_HAL_Driver/Src/stm32l0xx_hal_rcc_ex.c ****       }
 1185              		.loc 1 722 21 view .LVU341
 1186 027c 02E0     		b	.L44
 1187              	.LVL74:
 1188              	.L70:
 385:Drivers/STM32L0xx_HAL_Driver/Src/stm32l0xx_hal_rcc_ex.c ****   {
 1189              		.loc 1 385 3 view .LVU342
 1190 027e 0020     		movs	r0, #0
 1191              	.LVL75:
 385:Drivers/STM32L0xx_HAL_Driver/Src/stm32l0xx_hal_rcc_ex.c ****   {
 1192              		.loc 1 385 3 view .LVU343
 1193 0280 00E0     		b	.L44
 1194              	.L71:
 1195 0282 0020     		movs	r0, #0
 1196              	.LVL76:
 1197              	.L44:
 738:Drivers/STM32L0xx_HAL_Driver/Src/stm32l0xx_hal_rcc_ex.c **** }
 1198              		.loc 1 738 1 view .LVU344
 1199              		@ sp needed
 1200 0284 10BD     		pop	{r4, pc}
 1201              	.LVL77:
 1202              	.L75:
 428:Drivers/STM32L0xx_HAL_Driver/Src/stm32l0xx_hal_rcc_ex.c ****               break;
 1203              		.loc 1 428 25 view .LVU345
 1204 0286 0C48     		ldr	r0, .L114+20
 1205 0288 FCE7     		b	.L44
 1206              	.L76:
 1207 028a 0C48     		ldr	r0, .L114+24
 1208 028c FAE7     		b	.L44
 1209              	.LVL78:
 1210              	.L78:
 524:Drivers/STM32L0xx_HAL_Driver/Src/stm32l0xx_hal_rcc_ex.c ****           }
 1211              		.loc 1 524 23 view .LVU346
 1212 028e 0C48     		ldr	r0, .L114+28
 1213 0290 F8E7     		b	.L44
 1214              	.L81:
 570:Drivers/STM32L0xx_HAL_Driver/Src/stm32l0xx_hal_rcc_ex.c ****           }
 1215              		.loc 1 570 23 view .LVU347
 1216 0292 0B48     		ldr	r0, .L114+28
 1217 0294 F6E7     		b	.L44
 1218              	.L84:
 615:Drivers/STM32L0xx_HAL_Driver/Src/stm32l0xx_hal_rcc_ex.c ****           }
 1219              		.loc 1 615 23 view .LVU348
 1220 0296 0A48     		ldr	r0, .L114+28
 1221 0298 F4E7     		b	.L44
 1222              	.L87:
 660:Drivers/STM32L0xx_HAL_Driver/Src/stm32l0xx_hal_rcc_ex.c ****           }
 1223              		.loc 1 660 23 view .LVU349
 1224 029a 0948     		ldr	r0, .L114+28
 1225 029c F2E7     		b	.L44
 1226              	.L89:
 715:Drivers/STM32L0xx_HAL_Driver/Src/stm32l0xx_hal_rcc_ex.c ****           }
 1227              		.loc 1 715 23 view .LVU350
 1228 029e 0848     		ldr	r0, .L114+28
 1229 02a0 F0E7     		b	.L44
 1230              	.L115:
ARM GAS  C:\Users\User\AppData\Local\Temp\cc3ubKML.s 			page 39


 1231 02a2 C046     		.align	2
 1232              	.L114:
 1233 02a4 00000000 		.word	.L48
 1234 02a8 00100240 		.word	1073876992
 1235 02ac 88900000 		.word	37000
 1236 02b0 00093D00 		.word	4000000
 1237 02b4 80841E00 		.word	2000000
 1238 02b8 40420F00 		.word	1000000
 1239 02bc 20A10700 		.word	500000
 1240 02c0 0024F400 		.word	16000000
 1241              		.cfi_endproc
 1242              	.LFE49:
 1244              		.section	.text.HAL_RCCEx_EnableLSECSS,"ax",%progbits
 1245              		.align	1
 1246              		.global	HAL_RCCEx_EnableLSECSS
 1247              		.syntax unified
 1248              		.code	16
 1249              		.thumb_func
 1251              	HAL_RCCEx_EnableLSECSS:
 1252              	.LFB50:
 739:Drivers/STM32L0xx_HAL_Driver/Src/stm32l0xx_hal_rcc_ex.c **** 
 740:Drivers/STM32L0xx_HAL_Driver/Src/stm32l0xx_hal_rcc_ex.c **** /**
 741:Drivers/STM32L0xx_HAL_Driver/Src/stm32l0xx_hal_rcc_ex.c ****   * @brief  Enables the LSE Clock Security System.
 742:Drivers/STM32L0xx_HAL_Driver/Src/stm32l0xx_hal_rcc_ex.c ****   * @retval None
 743:Drivers/STM32L0xx_HAL_Driver/Src/stm32l0xx_hal_rcc_ex.c ****   */
 744:Drivers/STM32L0xx_HAL_Driver/Src/stm32l0xx_hal_rcc_ex.c **** void HAL_RCCEx_EnableLSECSS(void)
 745:Drivers/STM32L0xx_HAL_Driver/Src/stm32l0xx_hal_rcc_ex.c **** {
 1253              		.loc 1 745 1 is_stmt 1 view -0
 1254              		.cfi_startproc
 1255              		@ args = 0, pretend = 0, frame = 0
 1256              		@ frame_needed = 0, uses_anonymous_args = 0
 1257              		@ link register save eliminated.
 746:Drivers/STM32L0xx_HAL_Driver/Src/stm32l0xx_hal_rcc_ex.c ****   SET_BIT(RCC->CSR, RCC_CSR_LSECSSON) ;
 1258              		.loc 1 746 3 view .LVU352
 1259 0000 034A     		ldr	r2, .L117
 1260 0002 116D     		ldr	r1, [r2, #80]
 1261 0004 8023     		movs	r3, #128
 1262 0006 9B01     		lsls	r3, r3, #6
 1263 0008 0B43     		orrs	r3, r1
 1264 000a 1365     		str	r3, [r2, #80]
 747:Drivers/STM32L0xx_HAL_Driver/Src/stm32l0xx_hal_rcc_ex.c **** }
 1265              		.loc 1 747 1 is_stmt 0 view .LVU353
 1266              		@ sp needed
 1267 000c 7047     		bx	lr
 1268              	.L118:
 1269 000e C046     		.align	2
 1270              	.L117:
 1271 0010 00100240 		.word	1073876992
 1272              		.cfi_endproc
 1273              	.LFE50:
 1275              		.section	.text.HAL_RCCEx_DisableLSECSS,"ax",%progbits
 1276              		.align	1
 1277              		.global	HAL_RCCEx_DisableLSECSS
 1278              		.syntax unified
 1279              		.code	16
 1280              		.thumb_func
 1282              	HAL_RCCEx_DisableLSECSS:
ARM GAS  C:\Users\User\AppData\Local\Temp\cc3ubKML.s 			page 40


 1283              	.LFB51:
 748:Drivers/STM32L0xx_HAL_Driver/Src/stm32l0xx_hal_rcc_ex.c **** 
 749:Drivers/STM32L0xx_HAL_Driver/Src/stm32l0xx_hal_rcc_ex.c **** /**
 750:Drivers/STM32L0xx_HAL_Driver/Src/stm32l0xx_hal_rcc_ex.c ****   * @brief  Disables the LSE Clock Security System.
 751:Drivers/STM32L0xx_HAL_Driver/Src/stm32l0xx_hal_rcc_ex.c ****   * @note   Once enabled this bit cannot be disabled, except after an LSE failure detection
 752:Drivers/STM32L0xx_HAL_Driver/Src/stm32l0xx_hal_rcc_ex.c ****   *         (LSECSSD=1). In that case the software MUST disable the LSECSSON bit.
 753:Drivers/STM32L0xx_HAL_Driver/Src/stm32l0xx_hal_rcc_ex.c ****   *         Reset by power on reset and RTC software reset (RTCRST bit).
 754:Drivers/STM32L0xx_HAL_Driver/Src/stm32l0xx_hal_rcc_ex.c ****   * @retval None
 755:Drivers/STM32L0xx_HAL_Driver/Src/stm32l0xx_hal_rcc_ex.c ****   */
 756:Drivers/STM32L0xx_HAL_Driver/Src/stm32l0xx_hal_rcc_ex.c **** void HAL_RCCEx_DisableLSECSS(void)
 757:Drivers/STM32L0xx_HAL_Driver/Src/stm32l0xx_hal_rcc_ex.c **** {
 1284              		.loc 1 757 1 is_stmt 1 view -0
 1285              		.cfi_startproc
 1286              		@ args = 0, pretend = 0, frame = 0
 1287              		@ frame_needed = 0, uses_anonymous_args = 0
 1288              		@ link register save eliminated.
 758:Drivers/STM32L0xx_HAL_Driver/Src/stm32l0xx_hal_rcc_ex.c ****   /* Disable LSE CSS */
 759:Drivers/STM32L0xx_HAL_Driver/Src/stm32l0xx_hal_rcc_ex.c ****    CLEAR_BIT(RCC->CSR, RCC_CSR_LSECSSON) ;
 1289              		.loc 1 759 4 view .LVU355
 1290 0000 044B     		ldr	r3, .L120
 1291 0002 1A6D     		ldr	r2, [r3, #80]
 1292 0004 0449     		ldr	r1, .L120+4
 1293 0006 0A40     		ands	r2, r1
 1294 0008 1A65     		str	r2, [r3, #80]
 760:Drivers/STM32L0xx_HAL_Driver/Src/stm32l0xx_hal_rcc_ex.c **** 
 761:Drivers/STM32L0xx_HAL_Driver/Src/stm32l0xx_hal_rcc_ex.c ****   /* Disable LSE CSS IT */
 762:Drivers/STM32L0xx_HAL_Driver/Src/stm32l0xx_hal_rcc_ex.c ****   __HAL_RCC_DISABLE_IT(RCC_IT_LSECSS);
 1295              		.loc 1 762 3 view .LVU356
 1296 000a 1A69     		ldr	r2, [r3, #16]
 1297 000c 8021     		movs	r1, #128
 1298 000e 8A43     		bics	r2, r1
 1299 0010 1A61     		str	r2, [r3, #16]
 763:Drivers/STM32L0xx_HAL_Driver/Src/stm32l0xx_hal_rcc_ex.c **** }
 1300              		.loc 1 763 1 is_stmt 0 view .LVU357
 1301              		@ sp needed
 1302 0012 7047     		bx	lr
 1303              	.L121:
 1304              		.align	2
 1305              	.L120:
 1306 0014 00100240 		.word	1073876992
 1307 0018 FFDFFFFF 		.word	-8193
 1308              		.cfi_endproc
 1309              	.LFE51:
 1311              		.section	.text.HAL_RCCEx_EnableLSECSS_IT,"ax",%progbits
 1312              		.align	1
 1313              		.global	HAL_RCCEx_EnableLSECSS_IT
 1314              		.syntax unified
 1315              		.code	16
 1316              		.thumb_func
 1318              	HAL_RCCEx_EnableLSECSS_IT:
 1319              	.LFB52:
 764:Drivers/STM32L0xx_HAL_Driver/Src/stm32l0xx_hal_rcc_ex.c **** 
 765:Drivers/STM32L0xx_HAL_Driver/Src/stm32l0xx_hal_rcc_ex.c **** /**
 766:Drivers/STM32L0xx_HAL_Driver/Src/stm32l0xx_hal_rcc_ex.c ****   * @brief  Enable the LSE Clock Security System IT & corresponding EXTI line.
 767:Drivers/STM32L0xx_HAL_Driver/Src/stm32l0xx_hal_rcc_ex.c ****   * @note   LSE Clock Security System IT is mapped on RTC EXTI line 19
 768:Drivers/STM32L0xx_HAL_Driver/Src/stm32l0xx_hal_rcc_ex.c ****   * @retval None
 769:Drivers/STM32L0xx_HAL_Driver/Src/stm32l0xx_hal_rcc_ex.c ****   */
ARM GAS  C:\Users\User\AppData\Local\Temp\cc3ubKML.s 			page 41


 770:Drivers/STM32L0xx_HAL_Driver/Src/stm32l0xx_hal_rcc_ex.c **** void HAL_RCCEx_EnableLSECSS_IT(void)
 771:Drivers/STM32L0xx_HAL_Driver/Src/stm32l0xx_hal_rcc_ex.c **** {
 1320              		.loc 1 771 1 is_stmt 1 view -0
 1321              		.cfi_startproc
 1322              		@ args = 0, pretend = 0, frame = 0
 1323              		@ frame_needed = 0, uses_anonymous_args = 0
 1324              		@ link register save eliminated.
 772:Drivers/STM32L0xx_HAL_Driver/Src/stm32l0xx_hal_rcc_ex.c ****   /* Enable LSE CSS */
 773:Drivers/STM32L0xx_HAL_Driver/Src/stm32l0xx_hal_rcc_ex.c ****    SET_BIT(RCC->CSR, RCC_CSR_LSECSSON) ;
 1325              		.loc 1 773 4 view .LVU359
 1326 0000 094B     		ldr	r3, .L123
 1327 0002 196D     		ldr	r1, [r3, #80]
 1328 0004 8022     		movs	r2, #128
 1329 0006 9201     		lsls	r2, r2, #6
 1330 0008 0A43     		orrs	r2, r1
 1331 000a 1A65     		str	r2, [r3, #80]
 774:Drivers/STM32L0xx_HAL_Driver/Src/stm32l0xx_hal_rcc_ex.c **** 
 775:Drivers/STM32L0xx_HAL_Driver/Src/stm32l0xx_hal_rcc_ex.c ****   /* Enable LSE CSS IT */
 776:Drivers/STM32L0xx_HAL_Driver/Src/stm32l0xx_hal_rcc_ex.c ****   __HAL_RCC_ENABLE_IT(RCC_IT_LSECSS);
 1332              		.loc 1 776 3 view .LVU360
 1333 000c 1A69     		ldr	r2, [r3, #16]
 1334 000e 8021     		movs	r1, #128
 1335 0010 0A43     		orrs	r2, r1
 1336 0012 1A61     		str	r2, [r3, #16]
 777:Drivers/STM32L0xx_HAL_Driver/Src/stm32l0xx_hal_rcc_ex.c **** 
 778:Drivers/STM32L0xx_HAL_Driver/Src/stm32l0xx_hal_rcc_ex.c ****   /* Enable IT on EXTI Line 19 */
 779:Drivers/STM32L0xx_HAL_Driver/Src/stm32l0xx_hal_rcc_ex.c ****   __HAL_RCC_LSECSS_EXTI_ENABLE_IT();
 1337              		.loc 1 779 3 view .LVU361
 1338 0014 054B     		ldr	r3, .L123+4
 1339 0016 1968     		ldr	r1, [r3]
 1340 0018 8022     		movs	r2, #128
 1341 001a 1203     		lsls	r2, r2, #12
 1342 001c 1143     		orrs	r1, r2
 1343 001e 1960     		str	r1, [r3]
 780:Drivers/STM32L0xx_HAL_Driver/Src/stm32l0xx_hal_rcc_ex.c ****   __HAL_RCC_LSECSS_EXTI_ENABLE_RISING_EDGE();
 1344              		.loc 1 780 3 view .LVU362
 1345 0020 9968     		ldr	r1, [r3, #8]
 1346 0022 0A43     		orrs	r2, r1
 1347 0024 9A60     		str	r2, [r3, #8]
 781:Drivers/STM32L0xx_HAL_Driver/Src/stm32l0xx_hal_rcc_ex.c **** }
 1348              		.loc 1 781 1 is_stmt 0 view .LVU363
 1349              		@ sp needed
 1350 0026 7047     		bx	lr
 1351              	.L124:
 1352              		.align	2
 1353              	.L123:
 1354 0028 00100240 		.word	1073876992
 1355 002c 00040140 		.word	1073808384
 1356              		.cfi_endproc
 1357              	.LFE52:
 1359              		.section	.text.HAL_RCCEx_LSECSS_Callback,"ax",%progbits
 1360              		.align	1
 1361              		.weak	HAL_RCCEx_LSECSS_Callback
 1362              		.syntax unified
 1363              		.code	16
 1364              		.thumb_func
 1366              	HAL_RCCEx_LSECSS_Callback:
ARM GAS  C:\Users\User\AppData\Local\Temp\cc3ubKML.s 			page 42


 1367              	.LFB54:
 782:Drivers/STM32L0xx_HAL_Driver/Src/stm32l0xx_hal_rcc_ex.c **** 
 783:Drivers/STM32L0xx_HAL_Driver/Src/stm32l0xx_hal_rcc_ex.c **** /**
 784:Drivers/STM32L0xx_HAL_Driver/Src/stm32l0xx_hal_rcc_ex.c ****   * @brief Handle the RCC LSE Clock Security System interrupt request.
 785:Drivers/STM32L0xx_HAL_Driver/Src/stm32l0xx_hal_rcc_ex.c ****   * @retval None
 786:Drivers/STM32L0xx_HAL_Driver/Src/stm32l0xx_hal_rcc_ex.c ****   */
 787:Drivers/STM32L0xx_HAL_Driver/Src/stm32l0xx_hal_rcc_ex.c **** void HAL_RCCEx_LSECSS_IRQHandler(void)
 788:Drivers/STM32L0xx_HAL_Driver/Src/stm32l0xx_hal_rcc_ex.c **** {
 789:Drivers/STM32L0xx_HAL_Driver/Src/stm32l0xx_hal_rcc_ex.c ****   /* Check RCC LSE CSSF flag  */
 790:Drivers/STM32L0xx_HAL_Driver/Src/stm32l0xx_hal_rcc_ex.c ****   if(__HAL_RCC_GET_IT(RCC_IT_LSECSS))
 791:Drivers/STM32L0xx_HAL_Driver/Src/stm32l0xx_hal_rcc_ex.c ****   {
 792:Drivers/STM32L0xx_HAL_Driver/Src/stm32l0xx_hal_rcc_ex.c ****     /* RCC LSE Clock Security System interrupt user callback */
 793:Drivers/STM32L0xx_HAL_Driver/Src/stm32l0xx_hal_rcc_ex.c ****     HAL_RCCEx_LSECSS_Callback();
 794:Drivers/STM32L0xx_HAL_Driver/Src/stm32l0xx_hal_rcc_ex.c **** 
 795:Drivers/STM32L0xx_HAL_Driver/Src/stm32l0xx_hal_rcc_ex.c ****     /* Clear RCC LSE CSS pending bit */
 796:Drivers/STM32L0xx_HAL_Driver/Src/stm32l0xx_hal_rcc_ex.c ****     __HAL_RCC_CLEAR_IT(RCC_IT_LSECSS);
 797:Drivers/STM32L0xx_HAL_Driver/Src/stm32l0xx_hal_rcc_ex.c ****   }
 798:Drivers/STM32L0xx_HAL_Driver/Src/stm32l0xx_hal_rcc_ex.c **** }
 799:Drivers/STM32L0xx_HAL_Driver/Src/stm32l0xx_hal_rcc_ex.c **** 
 800:Drivers/STM32L0xx_HAL_Driver/Src/stm32l0xx_hal_rcc_ex.c **** /**
 801:Drivers/STM32L0xx_HAL_Driver/Src/stm32l0xx_hal_rcc_ex.c ****   * @brief  RCCEx LSE Clock Security System interrupt callback.
 802:Drivers/STM32L0xx_HAL_Driver/Src/stm32l0xx_hal_rcc_ex.c ****   * @retval none
 803:Drivers/STM32L0xx_HAL_Driver/Src/stm32l0xx_hal_rcc_ex.c ****   */
 804:Drivers/STM32L0xx_HAL_Driver/Src/stm32l0xx_hal_rcc_ex.c **** __weak void HAL_RCCEx_LSECSS_Callback(void)
 805:Drivers/STM32L0xx_HAL_Driver/Src/stm32l0xx_hal_rcc_ex.c **** {
 1368              		.loc 1 805 1 is_stmt 1 view -0
 1369              		.cfi_startproc
 1370              		@ args = 0, pretend = 0, frame = 0
 1371              		@ frame_needed = 0, uses_anonymous_args = 0
 1372              		@ link register save eliminated.
 806:Drivers/STM32L0xx_HAL_Driver/Src/stm32l0xx_hal_rcc_ex.c ****   /* NOTE : This function should not be modified, when the callback is needed,
 807:Drivers/STM32L0xx_HAL_Driver/Src/stm32l0xx_hal_rcc_ex.c ****             the @ref HAL_RCCEx_LSECSS_Callback should be implemented in the user file
 808:Drivers/STM32L0xx_HAL_Driver/Src/stm32l0xx_hal_rcc_ex.c ****    */
 809:Drivers/STM32L0xx_HAL_Driver/Src/stm32l0xx_hal_rcc_ex.c **** }
 1373              		.loc 1 809 1 view .LVU365
 1374              		@ sp needed
 1375 0000 7047     		bx	lr
 1376              		.cfi_endproc
 1377              	.LFE54:
 1379              		.section	.text.HAL_RCCEx_LSECSS_IRQHandler,"ax",%progbits
 1380              		.align	1
 1381              		.global	HAL_RCCEx_LSECSS_IRQHandler
 1382              		.syntax unified
 1383              		.code	16
 1384              		.thumb_func
 1386              	HAL_RCCEx_LSECSS_IRQHandler:
 1387              	.LFB53:
 788:Drivers/STM32L0xx_HAL_Driver/Src/stm32l0xx_hal_rcc_ex.c ****   /* Check RCC LSE CSSF flag  */
 1388              		.loc 1 788 1 view -0
 1389              		.cfi_startproc
 1390              		@ args = 0, pretend = 0, frame = 0
 1391              		@ frame_needed = 0, uses_anonymous_args = 0
 1392 0000 10B5     		push	{r4, lr}
 1393              	.LCFI3:
 1394              		.cfi_def_cfa_offset 8
 1395              		.cfi_offset 4, -8
 1396              		.cfi_offset 14, -4
ARM GAS  C:\Users\User\AppData\Local\Temp\cc3ubKML.s 			page 43


 790:Drivers/STM32L0xx_HAL_Driver/Src/stm32l0xx_hal_rcc_ex.c ****   {
 1397              		.loc 1 790 3 view .LVU367
 790:Drivers/STM32L0xx_HAL_Driver/Src/stm32l0xx_hal_rcc_ex.c ****   {
 1398              		.loc 1 790 6 is_stmt 0 view .LVU368
 1399 0002 054B     		ldr	r3, .L130
 1400 0004 5B69     		ldr	r3, [r3, #20]
 790:Drivers/STM32L0xx_HAL_Driver/Src/stm32l0xx_hal_rcc_ex.c ****   {
 1401              		.loc 1 790 5 view .LVU369
 1402 0006 1B06     		lsls	r3, r3, #24
 1403 0008 00D4     		bmi	.L129
 1404              	.L126:
 798:Drivers/STM32L0xx_HAL_Driver/Src/stm32l0xx_hal_rcc_ex.c **** 
 1405              		.loc 1 798 1 view .LVU370
 1406              		@ sp needed
 1407 000a 10BD     		pop	{r4, pc}
 1408              	.L129:
 793:Drivers/STM32L0xx_HAL_Driver/Src/stm32l0xx_hal_rcc_ex.c **** 
 1409              		.loc 1 793 5 is_stmt 1 view .LVU371
 1410 000c FFF7FEFF 		bl	HAL_RCCEx_LSECSS_Callback
 1411              	.LVL79:
 796:Drivers/STM32L0xx_HAL_Driver/Src/stm32l0xx_hal_rcc_ex.c ****   }
 1412              		.loc 1 796 5 view .LVU372
 1413 0010 014B     		ldr	r3, .L130
 1414 0012 8022     		movs	r2, #128
 1415 0014 9A61     		str	r2, [r3, #24]
 798:Drivers/STM32L0xx_HAL_Driver/Src/stm32l0xx_hal_rcc_ex.c **** 
 1416              		.loc 1 798 1 is_stmt 0 view .LVU373
 1417 0016 F8E7     		b	.L126
 1418              	.L131:
 1419              		.align	2
 1420              	.L130:
 1421 0018 00100240 		.word	1073876992
 1422              		.cfi_endproc
 1423              	.LFE53:
 1425              		.text
 1426              	.Letext0:
 1427              		.file 2 "c:\\program files (x86)\\arm gnu toolchain arm-none-eabi\\12.2 rel1\\arm-none-eabi\\inclu
 1428              		.file 3 "c:\\program files (x86)\\arm gnu toolchain arm-none-eabi\\12.2 rel1\\arm-none-eabi\\inclu
 1429              		.file 4 "Drivers/CMSIS/Device/ST/STM32L0xx/Include/stm32l071xx.h"
 1430              		.file 5 "Drivers/CMSIS/Device/ST/STM32L0xx/Include/stm32l0xx.h"
 1431              		.file 6 "Drivers/STM32L0xx_HAL_Driver/Inc/stm32l0xx_hal_def.h"
 1432              		.file 7 "Drivers/STM32L0xx_HAL_Driver/Inc/stm32l0xx_hal_rcc_ex.h"
 1433              		.file 8 "Drivers/STM32L0xx_HAL_Driver/Inc/stm32l0xx_hal_rcc.h"
 1434              		.file 9 "Drivers/STM32L0xx_HAL_Driver/Inc/stm32l0xx_hal.h"
ARM GAS  C:\Users\User\AppData\Local\Temp\cc3ubKML.s 			page 44

